
Spot_Welder.elf:     file format elf32-littlearm

Sections:
Idx Name          Size      VMA       LMA       File off  Algn
  0 .isr_vector   000000c0  08000000  08000000  00010000  2**0
                  CONTENTS, ALLOC, LOAD, READONLY, DATA
  1 .text         00002448  080000c0  080000c0  000100c0  2**2
                  CONTENTS, ALLOC, LOAD, READONLY, CODE
  2 .rodata       000015ec  08002508  08002508  00012508  2**1
                  CONTENTS, ALLOC, LOAD, READONLY, DATA
  3 .ARM.extab    00000000  08003af4  08003af4  00020030  2**0
                  CONTENTS
  4 .ARM          00000000  08003af4  08003af4  00020030  2**0
                  CONTENTS
  5 .preinit_array 00000000  08003af4  08003af4  00020030  2**0
                  CONTENTS, ALLOC, LOAD, DATA
  6 .init_array   00000004  08003af4  08003af4  00013af4  2**2
                  CONTENTS, ALLOC, LOAD, DATA
  7 .fini_array   00000004  08003af8  08003af8  00013af8  2**2
                  CONTENTS, ALLOC, LOAD, DATA
  8 .data         00000030  20000000  08003afc  00020000  2**2
                  CONTENTS, ALLOC, LOAD, DATA
  9 .bss          00000514  20000030  08003b2c  00020030  2**2
                  ALLOC
 10 ._user_heap_stack 00000604  20000544  08003b2c  00020544  2**0
                  ALLOC
 11 .ARM.attributes 00000028  00000000  00000000  00020030  2**0
                  CONTENTS, READONLY
 12 .debug_info   0000db37  00000000  00000000  00020058  2**0
                  CONTENTS, READONLY, DEBUGGING
 13 .debug_abbrev 000029f8  00000000  00000000  0002db8f  2**0
                  CONTENTS, READONLY, DEBUGGING
 14 .debug_loc    000029d2  00000000  00000000  00030587  2**0
                  CONTENTS, READONLY, DEBUGGING
 15 .debug_aranges 00000758  00000000  00000000  00032f60  2**3
                  CONTENTS, READONLY, DEBUGGING
 16 .debug_ranges 000009f8  00000000  00000000  000336b8  2**3
                  CONTENTS, READONLY, DEBUGGING
 17 .debug_macro  0000d083  00000000  00000000  000340b0  2**0
                  CONTENTS, READONLY, DEBUGGING
 18 .debug_line   00009eff  00000000  00000000  00041133  2**0
                  CONTENTS, READONLY, DEBUGGING
 19 .debug_str    00041d15  00000000  00000000  0004b032  2**0
                  CONTENTS, READONLY, DEBUGGING
 20 .comment      0000007b  00000000  00000000  0008cd47  2**0
                  CONTENTS, READONLY
 21 .debug_frame  00001210  00000000  00000000  0008cdc4  2**2
                  CONTENTS, READONLY, DEBUGGING

Disassembly of section .text:

080000c0 <__do_global_dtors_aux>:
 80000c0:	b510      	push	{r4, lr}
 80000c2:	4c06      	ldr	r4, [pc, #24]	; (80000dc <__do_global_dtors_aux+0x1c>)
 80000c4:	7823      	ldrb	r3, [r4, #0]
 80000c6:	2b00      	cmp	r3, #0
 80000c8:	d107      	bne.n	80000da <__do_global_dtors_aux+0x1a>
 80000ca:	4b05      	ldr	r3, [pc, #20]	; (80000e0 <__do_global_dtors_aux+0x20>)
 80000cc:	2b00      	cmp	r3, #0
 80000ce:	d002      	beq.n	80000d6 <__do_global_dtors_aux+0x16>
 80000d0:	4804      	ldr	r0, [pc, #16]	; (80000e4 <__do_global_dtors_aux+0x24>)
 80000d2:	e000      	b.n	80000d6 <__do_global_dtors_aux+0x16>
 80000d4:	bf00      	nop
 80000d6:	2301      	movs	r3, #1
 80000d8:	7023      	strb	r3, [r4, #0]
 80000da:	bd10      	pop	{r4, pc}
 80000dc:	20000030 	.word	0x20000030
 80000e0:	00000000 	.word	0x00000000
 80000e4:	080024f0 	.word	0x080024f0

080000e8 <frame_dummy>:
 80000e8:	4b04      	ldr	r3, [pc, #16]	; (80000fc <frame_dummy+0x14>)
 80000ea:	b510      	push	{r4, lr}
 80000ec:	2b00      	cmp	r3, #0
 80000ee:	d003      	beq.n	80000f8 <frame_dummy+0x10>
 80000f0:	4903      	ldr	r1, [pc, #12]	; (8000100 <frame_dummy+0x18>)
 80000f2:	4804      	ldr	r0, [pc, #16]	; (8000104 <frame_dummy+0x1c>)
 80000f4:	e000      	b.n	80000f8 <frame_dummy+0x10>
 80000f6:	bf00      	nop
 80000f8:	bd10      	pop	{r4, pc}
 80000fa:	46c0      	nop			; (mov r8, r8)
 80000fc:	00000000 	.word	0x00000000
 8000100:	20000034 	.word	0x20000034
 8000104:	080024f0 	.word	0x080024f0

08000108 <__gnu_thumb1_case_uqi>:
 8000108:	b402      	push	{r1}
 800010a:	4671      	mov	r1, lr
 800010c:	0849      	lsrs	r1, r1, #1
 800010e:	0049      	lsls	r1, r1, #1
 8000110:	5c09      	ldrb	r1, [r1, r0]
 8000112:	0049      	lsls	r1, r1, #1
 8000114:	448e      	add	lr, r1
 8000116:	bc02      	pop	{r1}
 8000118:	4770      	bx	lr
 800011a:	46c0      	nop			; (mov r8, r8)

0800011c <__udivsi3>:
 800011c:	2200      	movs	r2, #0
 800011e:	0843      	lsrs	r3, r0, #1
 8000120:	428b      	cmp	r3, r1
 8000122:	d374      	bcc.n	800020e <__udivsi3+0xf2>
 8000124:	0903      	lsrs	r3, r0, #4
 8000126:	428b      	cmp	r3, r1
 8000128:	d35f      	bcc.n	80001ea <__udivsi3+0xce>
 800012a:	0a03      	lsrs	r3, r0, #8
 800012c:	428b      	cmp	r3, r1
 800012e:	d344      	bcc.n	80001ba <__udivsi3+0x9e>
 8000130:	0b03      	lsrs	r3, r0, #12
 8000132:	428b      	cmp	r3, r1
 8000134:	d328      	bcc.n	8000188 <__udivsi3+0x6c>
 8000136:	0c03      	lsrs	r3, r0, #16
 8000138:	428b      	cmp	r3, r1
 800013a:	d30d      	bcc.n	8000158 <__udivsi3+0x3c>
 800013c:	22ff      	movs	r2, #255	; 0xff
 800013e:	0209      	lsls	r1, r1, #8
 8000140:	ba12      	rev	r2, r2
 8000142:	0c03      	lsrs	r3, r0, #16
 8000144:	428b      	cmp	r3, r1
 8000146:	d302      	bcc.n	800014e <__udivsi3+0x32>
 8000148:	1212      	asrs	r2, r2, #8
 800014a:	0209      	lsls	r1, r1, #8
 800014c:	d065      	beq.n	800021a <__udivsi3+0xfe>
 800014e:	0b03      	lsrs	r3, r0, #12
 8000150:	428b      	cmp	r3, r1
 8000152:	d319      	bcc.n	8000188 <__udivsi3+0x6c>
 8000154:	e000      	b.n	8000158 <__udivsi3+0x3c>
 8000156:	0a09      	lsrs	r1, r1, #8
 8000158:	0bc3      	lsrs	r3, r0, #15
 800015a:	428b      	cmp	r3, r1
 800015c:	d301      	bcc.n	8000162 <__udivsi3+0x46>
 800015e:	03cb      	lsls	r3, r1, #15
 8000160:	1ac0      	subs	r0, r0, r3
 8000162:	4152      	adcs	r2, r2
 8000164:	0b83      	lsrs	r3, r0, #14
 8000166:	428b      	cmp	r3, r1
 8000168:	d301      	bcc.n	800016e <__udivsi3+0x52>
 800016a:	038b      	lsls	r3, r1, #14
 800016c:	1ac0      	subs	r0, r0, r3
 800016e:	4152      	adcs	r2, r2
 8000170:	0b43      	lsrs	r3, r0, #13
 8000172:	428b      	cmp	r3, r1
 8000174:	d301      	bcc.n	800017a <__udivsi3+0x5e>
 8000176:	034b      	lsls	r3, r1, #13
 8000178:	1ac0      	subs	r0, r0, r3
 800017a:	4152      	adcs	r2, r2
 800017c:	0b03      	lsrs	r3, r0, #12
 800017e:	428b      	cmp	r3, r1
 8000180:	d301      	bcc.n	8000186 <__udivsi3+0x6a>
 8000182:	030b      	lsls	r3, r1, #12
 8000184:	1ac0      	subs	r0, r0, r3
 8000186:	4152      	adcs	r2, r2
 8000188:	0ac3      	lsrs	r3, r0, #11
 800018a:	428b      	cmp	r3, r1
 800018c:	d301      	bcc.n	8000192 <__udivsi3+0x76>
 800018e:	02cb      	lsls	r3, r1, #11
 8000190:	1ac0      	subs	r0, r0, r3
 8000192:	4152      	adcs	r2, r2
 8000194:	0a83      	lsrs	r3, r0, #10
 8000196:	428b      	cmp	r3, r1
 8000198:	d301      	bcc.n	800019e <__udivsi3+0x82>
 800019a:	028b      	lsls	r3, r1, #10
 800019c:	1ac0      	subs	r0, r0, r3
 800019e:	4152      	adcs	r2, r2
 80001a0:	0a43      	lsrs	r3, r0, #9
 80001a2:	428b      	cmp	r3, r1
 80001a4:	d301      	bcc.n	80001aa <__udivsi3+0x8e>
 80001a6:	024b      	lsls	r3, r1, #9
 80001a8:	1ac0      	subs	r0, r0, r3
 80001aa:	4152      	adcs	r2, r2
 80001ac:	0a03      	lsrs	r3, r0, #8
 80001ae:	428b      	cmp	r3, r1
 80001b0:	d301      	bcc.n	80001b6 <__udivsi3+0x9a>
 80001b2:	020b      	lsls	r3, r1, #8
 80001b4:	1ac0      	subs	r0, r0, r3
 80001b6:	4152      	adcs	r2, r2
 80001b8:	d2cd      	bcs.n	8000156 <__udivsi3+0x3a>
 80001ba:	09c3      	lsrs	r3, r0, #7
 80001bc:	428b      	cmp	r3, r1
 80001be:	d301      	bcc.n	80001c4 <__udivsi3+0xa8>
 80001c0:	01cb      	lsls	r3, r1, #7
 80001c2:	1ac0      	subs	r0, r0, r3
 80001c4:	4152      	adcs	r2, r2
 80001c6:	0983      	lsrs	r3, r0, #6
 80001c8:	428b      	cmp	r3, r1
 80001ca:	d301      	bcc.n	80001d0 <__udivsi3+0xb4>
 80001cc:	018b      	lsls	r3, r1, #6
 80001ce:	1ac0      	subs	r0, r0, r3
 80001d0:	4152      	adcs	r2, r2
 80001d2:	0943      	lsrs	r3, r0, #5
 80001d4:	428b      	cmp	r3, r1
 80001d6:	d301      	bcc.n	80001dc <__udivsi3+0xc0>
 80001d8:	014b      	lsls	r3, r1, #5
 80001da:	1ac0      	subs	r0, r0, r3
 80001dc:	4152      	adcs	r2, r2
 80001de:	0903      	lsrs	r3, r0, #4
 80001e0:	428b      	cmp	r3, r1
 80001e2:	d301      	bcc.n	80001e8 <__udivsi3+0xcc>
 80001e4:	010b      	lsls	r3, r1, #4
 80001e6:	1ac0      	subs	r0, r0, r3
 80001e8:	4152      	adcs	r2, r2
 80001ea:	08c3      	lsrs	r3, r0, #3
 80001ec:	428b      	cmp	r3, r1
 80001ee:	d301      	bcc.n	80001f4 <__udivsi3+0xd8>
 80001f0:	00cb      	lsls	r3, r1, #3
 80001f2:	1ac0      	subs	r0, r0, r3
 80001f4:	4152      	adcs	r2, r2
 80001f6:	0883      	lsrs	r3, r0, #2
 80001f8:	428b      	cmp	r3, r1
 80001fa:	d301      	bcc.n	8000200 <__udivsi3+0xe4>
 80001fc:	008b      	lsls	r3, r1, #2
 80001fe:	1ac0      	subs	r0, r0, r3
 8000200:	4152      	adcs	r2, r2
 8000202:	0843      	lsrs	r3, r0, #1
 8000204:	428b      	cmp	r3, r1
 8000206:	d301      	bcc.n	800020c <__udivsi3+0xf0>
 8000208:	004b      	lsls	r3, r1, #1
 800020a:	1ac0      	subs	r0, r0, r3
 800020c:	4152      	adcs	r2, r2
 800020e:	1a41      	subs	r1, r0, r1
 8000210:	d200      	bcs.n	8000214 <__udivsi3+0xf8>
 8000212:	4601      	mov	r1, r0
 8000214:	4152      	adcs	r2, r2
 8000216:	4610      	mov	r0, r2
 8000218:	4770      	bx	lr
 800021a:	e7ff      	b.n	800021c <__udivsi3+0x100>
 800021c:	b501      	push	{r0, lr}
 800021e:	2000      	movs	r0, #0
 8000220:	f000 f806 	bl	8000230 <__aeabi_idiv0>
 8000224:	bd02      	pop	{r1, pc}
 8000226:	46c0      	nop			; (mov r8, r8)

08000228 <__aeabi_uidivmod>:
 8000228:	2900      	cmp	r1, #0
 800022a:	d0f7      	beq.n	800021c <__udivsi3+0x100>
 800022c:	e776      	b.n	800011c <__udivsi3>
 800022e:	4770      	bx	lr

08000230 <__aeabi_idiv0>:
 8000230:	4770      	bx	lr
 8000232:	46c0      	nop			; (mov r8, r8)

08000234 <MX_ADC_Init>:

ADC_HandleTypeDef hadc;

/* ADC init function */
void MX_ADC_Init(void)
{
 8000234:	b51f      	push	{r0, r1, r2, r3, r4, lr}
  ADC_ChannelConfTypeDef sConfig = {0};
 8000236:	220c      	movs	r2, #12
 8000238:	2100      	movs	r1, #0
 800023a:	a801      	add	r0, sp, #4
 800023c:	f002 f91d 	bl	800247a <memset>
  hadc.Instance = ADC1;
  hadc.Init.ClockPrescaler = ADC_CLOCK_ASYNC_DIV1;
  hadc.Init.Resolution = ADC_RESOLUTION_10B;
  hadc.Init.DataAlign = ADC_DATAALIGN_RIGHT;
  hadc.Init.ScanConvMode = ADC_SCAN_DIRECTION_FORWARD;
  hadc.Init.EOCSelection = ADC_EOC_SINGLE_CONV;
 8000240:	2104      	movs	r1, #4
  hadc.Instance = ADC1;
 8000242:	4c16      	ldr	r4, [pc, #88]	; (800029c <MX_ADC_Init+0x68>)
 8000244:	4b16      	ldr	r3, [pc, #88]	; (80002a0 <MX_ADC_Init+0x6c>)
  hadc.Init.EOCSelection = ADC_EOC_SINGLE_CONV;
 8000246:	6161      	str	r1, [r4, #20]
  hadc.Init.LowPowerAutoWait = DISABLE;
  hadc.Init.LowPowerAutoPowerOff = DISABLE;
  hadc.Init.ContinuousConvMode = ENABLE;
  hadc.Init.DiscontinuousConvMode = DISABLE;
  hadc.Init.ExternalTrigConv = ADC_SOFTWARE_START;
 8000248:	21c2      	movs	r1, #194	; 0xc2
  hadc.Init.Resolution = ADC_RESOLUTION_10B;
 800024a:	2208      	movs	r2, #8
  hadc.Instance = ADC1;
 800024c:	6023      	str	r3, [r4, #0]
  hadc.Init.ClockPrescaler = ADC_CLOCK_ASYNC_DIV1;
 800024e:	2300      	movs	r3, #0
  hadc.Init.ExternalTrigConv = ADC_SOFTWARE_START;
 8000250:	31ff      	adds	r1, #255	; 0xff
  hadc.Init.Resolution = ADC_RESOLUTION_10B;
 8000252:	60a2      	str	r2, [r4, #8]
  hadc.Init.ExternalTrigConv = ADC_SOFTWARE_START;
 8000254:	61e1      	str	r1, [r4, #28]
  hadc.Init.ScanConvMode = ADC_SCAN_DIRECTION_FORWARD;
 8000256:	3a07      	subs	r2, #7
  hadc.Init.ExternalTrigConvEdge = ADC_EXTERNALTRIGCONVEDGE_NONE;
  hadc.Init.DMAContinuousRequests = DISABLE;
 8000258:	1d61      	adds	r1, r4, #5
  hadc.Init.Overrun = ADC_OVR_DATA_PRESERVED;
  if (HAL_ADC_Init(&hadc) != HAL_OK)
 800025a:	0020      	movs	r0, r4
  hadc.Init.ClockPrescaler = ADC_CLOCK_ASYNC_DIV1;
 800025c:	6063      	str	r3, [r4, #4]
  hadc.Init.DataAlign = ADC_DATAALIGN_RIGHT;
 800025e:	60e3      	str	r3, [r4, #12]
  hadc.Init.ScanConvMode = ADC_SCAN_DIRECTION_FORWARD;
 8000260:	6122      	str	r2, [r4, #16]
  hadc.Init.LowPowerAutoWait = DISABLE;
 8000262:	7623      	strb	r3, [r4, #24]
  hadc.Init.LowPowerAutoPowerOff = DISABLE;
 8000264:	7663      	strb	r3, [r4, #25]
  hadc.Init.ContinuousConvMode = ENABLE;
 8000266:	76a2      	strb	r2, [r4, #26]
  hadc.Init.DiscontinuousConvMode = DISABLE;
 8000268:	76e3      	strb	r3, [r4, #27]
  hadc.Init.ExternalTrigConvEdge = ADC_EXTERNALTRIGCONVEDGE_NONE;
 800026a:	6223      	str	r3, [r4, #32]
  hadc.Init.DMAContinuousRequests = DISABLE;
 800026c:	77cb      	strb	r3, [r1, #31]
  hadc.Init.Overrun = ADC_OVR_DATA_PRESERVED;
 800026e:	62a2      	str	r2, [r4, #40]	; 0x28
  if (HAL_ADC_Init(&hadc) != HAL_OK)
 8000270:	f001 fb50 	bl	8001914 <HAL_ADC_Init>
 8000274:	2800      	cmp	r0, #0
 8000276:	d001      	beq.n	800027c <MX_ADC_Init+0x48>
  {
    Error_Handler();
 8000278:	f000 f984 	bl	8000584 <Error_Handler>
  }
  /** Configure for the selected ADC regular channel to be converted. 
  */
  sConfig.Channel = ADC_CHANNEL_5;
  sConfig.Rank = ADC_RANK_CHANNEL_NUMBER;
 800027c:	2280      	movs	r2, #128	; 0x80
  sConfig.Channel = ADC_CHANNEL_5;
 800027e:	2305      	movs	r3, #5
  sConfig.Rank = ADC_RANK_CHANNEL_NUMBER;
 8000280:	0152      	lsls	r2, r2, #5
  sConfig.SamplingTime = ADC_SAMPLETIME_55CYCLES_5;
  if (HAL_ADC_ConfigChannel(&hadc, &sConfig) != HAL_OK)
 8000282:	a901      	add	r1, sp, #4
 8000284:	0020      	movs	r0, r4
  sConfig.Channel = ADC_CHANNEL_5;
 8000286:	9301      	str	r3, [sp, #4]
  sConfig.Rank = ADC_RANK_CHANNEL_NUMBER;
 8000288:	9202      	str	r2, [sp, #8]
  sConfig.SamplingTime = ADC_SAMPLETIME_55CYCLES_5;
 800028a:	9303      	str	r3, [sp, #12]
  if (HAL_ADC_ConfigChannel(&hadc, &sConfig) != HAL_OK)
 800028c:	f001 fc76 	bl	8001b7c <HAL_ADC_ConfigChannel>
 8000290:	2800      	cmp	r0, #0
 8000292:	d001      	beq.n	8000298 <MX_ADC_Init+0x64>
  {
    Error_Handler();
 8000294:	f000 f976 	bl	8000584 <Error_Handler>
  }

}
 8000298:	bd1f      	pop	{r0, r1, r2, r3, r4, pc}
 800029a:	46c0      	nop			; (mov r8, r8)
 800029c:	20000478 	.word	0x20000478
 80002a0:	40012400 	.word	0x40012400

080002a4 <HAL_ADC_MspInit>:

void HAL_ADC_MspInit(ADC_HandleTypeDef* adcHandle)
{
 80002a4:	b510      	push	{r4, lr}
 80002a6:	0004      	movs	r4, r0
 80002a8:	b088      	sub	sp, #32

  GPIO_InitTypeDef GPIO_InitStruct = {0};
 80002aa:	2214      	movs	r2, #20
 80002ac:	2100      	movs	r1, #0
 80002ae:	a803      	add	r0, sp, #12
 80002b0:	f002 f8e3 	bl	800247a <memset>
  if(adcHandle->Instance==ADC1)
 80002b4:	4b10      	ldr	r3, [pc, #64]	; (80002f8 <HAL_ADC_MspInit+0x54>)
 80002b6:	6822      	ldr	r2, [r4, #0]
 80002b8:	429a      	cmp	r2, r3
 80002ba:	d11b      	bne.n	80002f4 <HAL_ADC_MspInit+0x50>
  {
  /* USER CODE BEGIN ADC1_MspInit 0 */

  /* USER CODE END ADC1_MspInit 0 */
    /* ADC1 clock enable */
    __HAL_RCC_ADC1_CLK_ENABLE();
 80002bc:	2080      	movs	r0, #128	; 0x80
 80002be:	4b0f      	ldr	r3, [pc, #60]	; (80002fc <HAL_ADC_MspInit+0x58>)
 80002c0:	0080      	lsls	r0, r0, #2
 80002c2:	6999      	ldr	r1, [r3, #24]
 80002c4:	4301      	orrs	r1, r0
 80002c6:	6199      	str	r1, [r3, #24]
  
    __HAL_RCC_GPIOA_CLK_ENABLE();
 80002c8:	2180      	movs	r1, #128	; 0x80
    __HAL_RCC_ADC1_CLK_ENABLE();
 80002ca:	699a      	ldr	r2, [r3, #24]
    __HAL_RCC_GPIOA_CLK_ENABLE();
 80002cc:	0289      	lsls	r1, r1, #10
    __HAL_RCC_ADC1_CLK_ENABLE();
 80002ce:	4002      	ands	r2, r0
 80002d0:	9201      	str	r2, [sp, #4]
 80002d2:	9a01      	ldr	r2, [sp, #4]
    __HAL_RCC_GPIOA_CLK_ENABLE();
 80002d4:	695a      	ldr	r2, [r3, #20]
    PA5     ------> ADC_IN5 
    */
    GPIO_InitStruct.Pin = ADC_VIN_Pin;
    GPIO_InitStruct.Mode = GPIO_MODE_ANALOG;
    GPIO_InitStruct.Pull = GPIO_NOPULL;
    HAL_GPIO_Init(ADC_VIN_GPIO_Port, &GPIO_InitStruct);
 80002d6:	2090      	movs	r0, #144	; 0x90
    __HAL_RCC_GPIOA_CLK_ENABLE();
 80002d8:	430a      	orrs	r2, r1
 80002da:	615a      	str	r2, [r3, #20]
 80002dc:	695b      	ldr	r3, [r3, #20]
    HAL_GPIO_Init(ADC_VIN_GPIO_Port, &GPIO_InitStruct);
 80002de:	05c0      	lsls	r0, r0, #23
    __HAL_RCC_GPIOA_CLK_ENABLE();
 80002e0:	400b      	ands	r3, r1
 80002e2:	9302      	str	r3, [sp, #8]
 80002e4:	9b02      	ldr	r3, [sp, #8]
    GPIO_InitStruct.Pin = ADC_VIN_Pin;
 80002e6:	2320      	movs	r3, #32
    HAL_GPIO_Init(ADC_VIN_GPIO_Port, &GPIO_InitStruct);
 80002e8:	a903      	add	r1, sp, #12
    GPIO_InitStruct.Pin = ADC_VIN_Pin;
 80002ea:	9303      	str	r3, [sp, #12]
    GPIO_InitStruct.Mode = GPIO_MODE_ANALOG;
 80002ec:	3b1d      	subs	r3, #29
 80002ee:	9304      	str	r3, [sp, #16]
    HAL_GPIO_Init(ADC_VIN_GPIO_Port, &GPIO_InitStruct);
 80002f0:	f001 fd06 	bl	8001d00 <HAL_GPIO_Init>

  /* USER CODE BEGIN ADC1_MspInit 1 */

  /* USER CODE END ADC1_MspInit 1 */
  }
}
 80002f4:	b008      	add	sp, #32
 80002f6:	bd10      	pop	{r4, pc}
 80002f8:	40012400 	.word	0x40012400
 80002fc:	40021000 	.word	0x40021000

08000300 <Button_Attach>:
static Button_Struct_t* Button_Struct_PTR_Array[MAX_BUTTONS];

static uint8_t Attached_Buttons = 0;

uint8_t Button_Attach(Button_Struct_t*  Button_Struct_PTR)
{
 8000300:	b510      	push	{r4, lr}
 8000302:	0004      	movs	r4, r0
	//init GPIOs as input

	GPIO_InitTypeDef GPIO_InitStruct;

	/* GPIO Ports Clock Enable */
	__HAL_RCC_GPIOC_CLK_ENABLE()
 8000304:	2080      	movs	r0, #128	; 0x80
 8000306:	4b21      	ldr	r3, [pc, #132]	; (800038c <Button_Attach+0x8c>)
 8000308:	0300      	lsls	r0, r0, #12
 800030a:	6959      	ldr	r1, [r3, #20]
{
 800030c:	b08a      	sub	sp, #40	; 0x28
	__HAL_RCC_GPIOC_CLK_ENABLE()
 800030e:	4301      	orrs	r1, r0
 8000310:	6159      	str	r1, [r3, #20]
 8000312:	695a      	ldr	r2, [r3, #20]
 8000314:	4002      	ands	r2, r0
	;
	__HAL_RCC_GPIOD_CLK_ENABLE()
 8000316:	2080      	movs	r0, #128	; 0x80
	__HAL_RCC_GPIOC_CLK_ENABLE()
 8000318:	9201      	str	r2, [sp, #4]
 800031a:	9a01      	ldr	r2, [sp, #4]
	__HAL_RCC_GPIOD_CLK_ENABLE()
 800031c:	6959      	ldr	r1, [r3, #20]
 800031e:	0340      	lsls	r0, r0, #13
 8000320:	4301      	orrs	r1, r0
 8000322:	6159      	str	r1, [r3, #20]
 8000324:	695a      	ldr	r2, [r3, #20]
 8000326:	4002      	ands	r2, r0
	;
	__HAL_RCC_GPIOA_CLK_ENABLE()
 8000328:	2080      	movs	r0, #128	; 0x80
	__HAL_RCC_GPIOD_CLK_ENABLE()
 800032a:	9202      	str	r2, [sp, #8]
 800032c:	9a02      	ldr	r2, [sp, #8]
	__HAL_RCC_GPIOA_CLK_ENABLE()
 800032e:	6959      	ldr	r1, [r3, #20]
 8000330:	0280      	lsls	r0, r0, #10
 8000332:	4301      	orrs	r1, r0
 8000334:	6159      	str	r1, [r3, #20]
	;
	__HAL_RCC_GPIOB_CLK_ENABLE()
 8000336:	2180      	movs	r1, #128	; 0x80
	__HAL_RCC_GPIOA_CLK_ENABLE()
 8000338:	695a      	ldr	r2, [r3, #20]
	__HAL_RCC_GPIOB_CLK_ENABLE()
 800033a:	02c9      	lsls	r1, r1, #11
	__HAL_RCC_GPIOA_CLK_ENABLE()
 800033c:	4002      	ands	r2, r0
 800033e:	9203      	str	r2, [sp, #12]
 8000340:	9a03      	ldr	r2, [sp, #12]
	__HAL_RCC_GPIOB_CLK_ENABLE()
 8000342:	695a      	ldr	r2, [r3, #20]
 8000344:	430a      	orrs	r2, r1
 8000346:	615a      	str	r2, [r3, #20]
 8000348:	695b      	ldr	r3, [r3, #20]
 800034a:	400b      	ands	r3, r1
 800034c:	9304      	str	r3, [sp, #16]
 800034e:	9b04      	ldr	r3, [sp, #16]
	;

	GPIO_InitStruct.Pin = Button_Struct_PTR->Button_Pin;
 8000350:	8823      	ldrh	r3, [r4, #0]
 8000352:	9305      	str	r3, [sp, #20]
	GPIO_InitStruct.Mode = GPIO_MODE_INPUT;
 8000354:	2300      	movs	r3, #0
 8000356:	9306      	str	r3, [sp, #24]
	if (Button_Struct_PTR->Button_Pressed_Logic == LOW)
 8000358:	7a23      	ldrb	r3, [r4, #8]
 800035a:	2b00      	cmp	r3, #0
 800035c:	d113      	bne.n	8000386 <Button_Attach+0x86>
	{
		GPIO_InitStruct.Pull = GPIO_PULLUP;
 800035e:	3301      	adds	r3, #1
	}
	else
	{
		GPIO_InitStruct.Pull = GPIO_PULLDOWN;
	}
	HAL_GPIO_Init(Button_Struct_PTR->Button_Pin_Port, &GPIO_InitStruct);
 8000360:	a905      	add	r1, sp, #20
 8000362:	6860      	ldr	r0, [r4, #4]
		GPIO_InitStruct.Pull = GPIO_PULLDOWN;
 8000364:	9307      	str	r3, [sp, #28]
	HAL_GPIO_Init(Button_Struct_PTR->Button_Pin_Port, &GPIO_InitStruct);
 8000366:	f001 fccb 	bl	8001d00 <HAL_GPIO_Init>

	Button_Struct_PTR->Button_Clicked_Count = 0;
 800036a:	2300      	movs	r3, #0
 800036c:	7523      	strb	r3, [r4, #20]
	Button_Struct_PTR->Button_Event = Button_Idle;
 800036e:	7263      	strb	r3, [r4, #9]
	Button_Struct_PTR->Button_Pressed_Ticks = 0;
 8000370:	60e3      	str	r3, [r4, #12]
	Button_Struct_PTR->Button_Released_Ticks = 0;
 8000372:	6123      	str	r3, [r4, #16]

	Button_Struct_PTR_Array[Attached_Buttons] = Button_Struct_PTR;
 8000374:	4b06      	ldr	r3, [pc, #24]	; (8000390 <Button_Attach+0x90>)
 8000376:	4a07      	ldr	r2, [pc, #28]	; (8000394 <Button_Attach+0x94>)
 8000378:	7818      	ldrb	r0, [r3, #0]
 800037a:	0081      	lsls	r1, r0, #2
 800037c:	508c      	str	r4, [r1, r2]

	Attached_Buttons++;
 800037e:	1c42      	adds	r2, r0, #1
 8000380:	701a      	strb	r2, [r3, #0]
	if (Attached_Buttons > MAX_BUTTONS)
	{
		//Error
	}
	return (Attached_Buttons - 1);//return button ID
}
 8000382:	b00a      	add	sp, #40	; 0x28
 8000384:	bd10      	pop	{r4, pc}
		GPIO_InitStruct.Pull = GPIO_PULLDOWN;
 8000386:	2302      	movs	r3, #2
 8000388:	e7ea      	b.n	8000360 <Button_Attach+0x60>
 800038a:	46c0      	nop			; (mov r8, r8)
 800038c:	40021000 	.word	0x40021000
 8000390:	2000004c 	.word	0x2000004c
 8000394:	20000054 	.word	0x20000054

08000398 <Button_Scan>:
 * should be called at least every 20ms?
 *
 *
 */
void Button_Scan()
{
 8000398:	b5f8      	push	{r3, r4, r5, r6, r7, lr}
	static volatile uint32_t Button_Scan_Time_Stamp = 0;
	Button_Struct_t *PTR = NULL;

	if (HAL_GetTick() - Button_Scan_Time_Stamp > (BUTTON_SCAN_TICK - 1)) // excute this loop on every BUTTON_SCAN_TICK
 800039a:	f001 fa57 	bl	800184c <HAL_GetTick>
 800039e:	4c28      	ldr	r4, [pc, #160]	; (8000440 <Button_Scan+0xa8>)
 80003a0:	6823      	ldr	r3, [r4, #0]
 80003a2:	1ac0      	subs	r0, r0, r3
 80003a4:	2804      	cmp	r0, #4
 80003a6:	d909      	bls.n	80003bc <Button_Scan+0x24>
	{
		Button_Scan_Time_Stamp = HAL_GetTick();
 80003a8:	f001 fa50 	bl	800184c <HAL_GetTick>

		for (uint8_t Index = 0; Index < Attached_Buttons; Index++)
 80003ac:	2500      	movs	r5, #0
					PTR->Button_Released_Ticks = 0;

				}
				else
				{   //long pressed detected
					PTR->Button_Event = Button_Long_Pressed;
 80003ae:	2703      	movs	r7, #3
					PTR->Button_Clicked_Count = 0xFF; //0xFF for long press
 80003b0:	26ff      	movs	r6, #255	; 0xff
		Button_Scan_Time_Stamp = HAL_GetTick();
 80003b2:	6020      	str	r0, [r4, #0]
		for (uint8_t Index = 0; Index < Attached_Buttons; Index++)
 80003b4:	4b23      	ldr	r3, [pc, #140]	; (8000444 <Button_Scan+0xac>)
 80003b6:	781b      	ldrb	r3, [r3, #0]
 80003b8:	42ab      	cmp	r3, r5
 80003ba:	d800      	bhi.n	80003be <Button_Scan+0x26>
			}

		}

	}
}
 80003bc:	bdf8      	pop	{r3, r4, r5, r6, r7, pc}
			PTR = Button_Struct_PTR_Array[Index];
 80003be:	4b22      	ldr	r3, [pc, #136]	; (8000448 <Button_Scan+0xb0>)
 80003c0:	00aa      	lsls	r2, r5, #2
 80003c2:	58d4      	ldr	r4, [r2, r3]
			if (HAL_GPIO_ReadPin(PTR->Button_Pin_Port,
 80003c4:	8821      	ldrh	r1, [r4, #0]
 80003c6:	6860      	ldr	r0, [r4, #4]
 80003c8:	f001 fd4a 	bl	8001e60 <HAL_GPIO_ReadPin>
 80003cc:	7a22      	ldrb	r2, [r4, #8]
 80003ce:	68e3      	ldr	r3, [r4, #12]
 80003d0:	4282      	cmp	r2, r0
 80003d2:	d11a      	bne.n	800040a <Button_Scan+0x72>
				PTR->Button_Pressed_Ticks++;	//
 80003d4:	3301      	adds	r3, #1
 80003d6:	60e3      	str	r3, [r4, #12]
				if (PTR->Button_Pressed_Ticks
 80003d8:	2bc7      	cmp	r3, #199	; 0xc7
 80003da:	d80b      	bhi.n	80003f4 <Button_Scan+0x5c>
					if (PTR->Button_Released_Ticks //repressed detected
 80003dc:	6923      	ldr	r3, [r4, #16]
 80003de:	2b1d      	cmp	r3, #29
 80003e0:	d806      	bhi.n	80003f0 <Button_Scan+0x58>
						PTR->Button_Event = Button_Repressed;
 80003e2:	2302      	movs	r3, #2
						PTR->Button_Event = Button_Pressed;
 80003e4:	7263      	strb	r3, [r4, #9]
					PTR->Button_Released_Ticks = 0;
 80003e6:	2300      	movs	r3, #0
 80003e8:	6123      	str	r3, [r4, #16]
		for (uint8_t Index = 0; Index < Attached_Buttons; Index++)
 80003ea:	3501      	adds	r5, #1
 80003ec:	b2ed      	uxtb	r5, r5
 80003ee:	e7e1      	b.n	80003b4 <Button_Scan+0x1c>
						PTR->Button_Event = Button_Pressed;
 80003f0:	2301      	movs	r3, #1
 80003f2:	e7f7      	b.n	80003e4 <Button_Scan+0x4c>
					if (PTR->Callback != NULL)
 80003f4:	69a3      	ldr	r3, [r4, #24]
					PTR->Button_Event = Button_Long_Pressed;
 80003f6:	7267      	strb	r7, [r4, #9]
					PTR->Button_Clicked_Count = 0xFF; //0xFF for long press
 80003f8:	7526      	strb	r6, [r4, #20]
						PTR->Callback(
 80003fa:	0030      	movs	r0, r6
					if (PTR->Callback != NULL)
 80003fc:	2b00      	cmp	r3, #0
 80003fe:	d0f4      	beq.n	80003ea <Button_Scan+0x52>
						PTR->Callback(
 8000400:	4798      	blx	r3
						PTR->Button_Clicked_Count = 0;
 8000402:	2300      	movs	r3, #0
 8000404:	7523      	strb	r3, [r4, #20]
						PTR->Button_Event = Button_Idle;
 8000406:	7263      	strb	r3, [r4, #9]
 8000408:	e7ef      	b.n	80003ea <Button_Scan+0x52>
				PTR->Button_Released_Ticks++;
 800040a:	6922      	ldr	r2, [r4, #16]
 800040c:	3201      	adds	r2, #1
 800040e:	6122      	str	r2, [r4, #16]
				if (PTR->Button_Pressed_Ticks
 8000410:	2b0a      	cmp	r3, #10
 8000412:	d90a      	bls.n	800042a <Button_Scan+0x92>
					PTR->Button_Pressed_Ticks = 0;
 8000414:	2300      	movs	r3, #0
 8000416:	60e3      	str	r3, [r4, #12]
					if (PTR->Button_Event == Button_Repressed)
 8000418:	7a63      	ldrb	r3, [r4, #9]
 800041a:	2b02      	cmp	r3, #2
 800041c:	d103      	bne.n	8000426 <Button_Scan+0x8e>
						PTR->Button_Clicked_Count++;
 800041e:	7d23      	ldrb	r3, [r4, #20]
 8000420:	3301      	adds	r3, #1
						PTR->Button_Clicked_Count = 1;
 8000422:	7523      	strb	r3, [r4, #20]
 8000424:	e001      	b.n	800042a <Button_Scan+0x92>
					else if (PTR->Button_Event
 8000426:	2b01      	cmp	r3, #1
 8000428:	d0fb      	beq.n	8000422 <Button_Scan+0x8a>
				if (PTR->Button_Released_Ticks
 800042a:	2a32      	cmp	r2, #50	; 0x32
 800042c:	d9dd      	bls.n	80003ea <Button_Scan+0x52>
					if (PTR->Callback != NULL
 800042e:	69a3      	ldr	r3, [r4, #24]
 8000430:	2b00      	cmp	r3, #0
 8000432:	d0da      	beq.n	80003ea <Button_Scan+0x52>
							&& PTR->Button_Event != Button_Idle)
 8000434:	7a62      	ldrb	r2, [r4, #9]
 8000436:	2a00      	cmp	r2, #0
 8000438:	d0d7      	beq.n	80003ea <Button_Scan+0x52>
						PTR->Callback(
 800043a:	7d20      	ldrb	r0, [r4, #20]
 800043c:	e7e0      	b.n	8000400 <Button_Scan+0x68>
 800043e:	46c0      	nop			; (mov r8, r8)
 8000440:	20000050 	.word	0x20000050
 8000444:	2000004c 	.word	0x2000004c
 8000448:	20000054 	.word	0x20000054

0800044c <MX_GPIO_Init>:
        * EXTI
        * Free pins are configured automatically as Analog (this feature is enabled through 
        * the Code Generation settings)
*/
void MX_GPIO_Init(void)
{
 800044c:	b5f0      	push	{r4, r5, r6, r7, lr}
 800044e:	b089      	sub	sp, #36	; 0x24

  GPIO_InitTypeDef GPIO_InitStruct = {0};
 8000450:	2214      	movs	r2, #20
 8000452:	2100      	movs	r1, #0
 8000454:	a803      	add	r0, sp, #12
 8000456:	f002 f810 	bl	800247a <memset>

  /* GPIO Ports Clock Enable */
  __HAL_RCC_GPIOF_CLK_ENABLE();
 800045a:	2080      	movs	r0, #128	; 0x80
 800045c:	4b27      	ldr	r3, [pc, #156]	; (80004fc <MX_GPIO_Init+0xb0>)
 800045e:	03c0      	lsls	r0, r0, #15
 8000460:	6959      	ldr	r1, [r3, #20]
  __HAL_RCC_GPIOA_CLK_ENABLE();
  __HAL_RCC_GPIOB_CLK_ENABLE();

  /*Configure GPIO pin Output Level */
  HAL_GPIO_WritePin(GPIOA, Gate_Driver_Pin|GPIO_PIN_9, GPIO_PIN_RESET);
 8000462:	2590      	movs	r5, #144	; 0x90
  __HAL_RCC_GPIOF_CLK_ENABLE();
 8000464:	4301      	orrs	r1, r0
 8000466:	6159      	str	r1, [r3, #20]
 8000468:	695a      	ldr	r2, [r3, #20]

  /*Configure GPIO pins : PF0 PF1 */
  GPIO_InitStruct.Pin = GPIO_PIN_0|GPIO_PIN_1;
  GPIO_InitStruct.Mode = GPIO_MODE_ANALOG;
  GPIO_InitStruct.Pull = GPIO_NOPULL;
 800046a:	2400      	movs	r4, #0
  __HAL_RCC_GPIOF_CLK_ENABLE();
 800046c:	4002      	ands	r2, r0
  __HAL_RCC_GPIOA_CLK_ENABLE();
 800046e:	2080      	movs	r0, #128	; 0x80
  __HAL_RCC_GPIOF_CLK_ENABLE();
 8000470:	9200      	str	r2, [sp, #0]
 8000472:	9a00      	ldr	r2, [sp, #0]
  __HAL_RCC_GPIOA_CLK_ENABLE();
 8000474:	6959      	ldr	r1, [r3, #20]
 8000476:	0280      	lsls	r0, r0, #10
 8000478:	4301      	orrs	r1, r0
 800047a:	6159      	str	r1, [r3, #20]
  __HAL_RCC_GPIOB_CLK_ENABLE();
 800047c:	2180      	movs	r1, #128	; 0x80
  GPIO_InitStruct.Pin = GPIO_PIN_0|GPIO_PIN_1;
 800047e:	2603      	movs	r6, #3
  __HAL_RCC_GPIOA_CLK_ENABLE();
 8000480:	695a      	ldr	r2, [r3, #20]
  __HAL_RCC_GPIOB_CLK_ENABLE();
 8000482:	02c9      	lsls	r1, r1, #11
  __HAL_RCC_GPIOA_CLK_ENABLE();
 8000484:	4002      	ands	r2, r0
 8000486:	9201      	str	r2, [sp, #4]
 8000488:	9a01      	ldr	r2, [sp, #4]
  __HAL_RCC_GPIOB_CLK_ENABLE();
 800048a:	695a      	ldr	r2, [r3, #20]
  HAL_GPIO_WritePin(GPIOA, Gate_Driver_Pin|GPIO_PIN_9, GPIO_PIN_RESET);
 800048c:	4f1c      	ldr	r7, [pc, #112]	; (8000500 <MX_GPIO_Init+0xb4>)
  __HAL_RCC_GPIOB_CLK_ENABLE();
 800048e:	430a      	orrs	r2, r1
 8000490:	615a      	str	r2, [r3, #20]
 8000492:	695b      	ldr	r3, [r3, #20]
  HAL_GPIO_WritePin(GPIOA, Gate_Driver_Pin|GPIO_PIN_9, GPIO_PIN_RESET);
 8000494:	05ed      	lsls	r5, r5, #23
  __HAL_RCC_GPIOB_CLK_ENABLE();
 8000496:	400b      	ands	r3, r1
  HAL_GPIO_WritePin(GPIOA, Gate_Driver_Pin|GPIO_PIN_9, GPIO_PIN_RESET);
 8000498:	2200      	movs	r2, #0
  __HAL_RCC_GPIOB_CLK_ENABLE();
 800049a:	9302      	str	r3, [sp, #8]
  HAL_GPIO_WritePin(GPIOA, Gate_Driver_Pin|GPIO_PIN_9, GPIO_PIN_RESET);
 800049c:	0039      	movs	r1, r7
 800049e:	0028      	movs	r0, r5
  __HAL_RCC_GPIOB_CLK_ENABLE();
 80004a0:	9b02      	ldr	r3, [sp, #8]
  HAL_GPIO_WritePin(GPIOA, Gate_Driver_Pin|GPIO_PIN_9, GPIO_PIN_RESET);
 80004a2:	f001 fce3 	bl	8001e6c <HAL_GPIO_WritePin>
  HAL_GPIO_Init(GPIOF, &GPIO_InitStruct);
 80004a6:	a903      	add	r1, sp, #12
 80004a8:	4816      	ldr	r0, [pc, #88]	; (8000504 <MX_GPIO_Init+0xb8>)
  GPIO_InitStruct.Pin = GPIO_PIN_0|GPIO_PIN_1;
 80004aa:	9603      	str	r6, [sp, #12]
  GPIO_InitStruct.Mode = GPIO_MODE_ANALOG;
 80004ac:	9604      	str	r6, [sp, #16]
  GPIO_InitStruct.Pull = GPIO_NOPULL;
 80004ae:	9405      	str	r4, [sp, #20]
  HAL_GPIO_Init(GPIOF, &GPIO_InitStruct);
 80004b0:	f001 fc26 	bl	8001d00 <HAL_GPIO_Init>

  /*Configure GPIO pins : PAPin PAPin PAPin PAPin 
                           PA10 */
  GPIO_InitStruct.Pin = Auto_Pulse_Pin_Pin|Foot_Switch_Pin|ENCDR_B_Pin|ENCDR_A_Pin 
 80004b4:	4b14      	ldr	r3, [pc, #80]	; (8000508 <MX_GPIO_Init+0xbc>)
                          |GPIO_PIN_10;
  GPIO_InitStruct.Mode = GPIO_MODE_INPUT;
  GPIO_InitStruct.Pull = GPIO_NOPULL;
  HAL_GPIO_Init(GPIOA, &GPIO_InitStruct);
 80004b6:	a903      	add	r1, sp, #12
 80004b8:	0028      	movs	r0, r5
  GPIO_InitStruct.Pin = Auto_Pulse_Pin_Pin|Foot_Switch_Pin|ENCDR_B_Pin|ENCDR_A_Pin 
 80004ba:	9303      	str	r3, [sp, #12]
  GPIO_InitStruct.Mode = GPIO_MODE_INPUT;
 80004bc:	9404      	str	r4, [sp, #16]
  GPIO_InitStruct.Pull = GPIO_NOPULL;
 80004be:	9405      	str	r4, [sp, #20]
  HAL_GPIO_Init(GPIOA, &GPIO_InitStruct);
 80004c0:	f001 fc1e 	bl	8001d00 <HAL_GPIO_Init>

  /*Configure GPIO pins : PAPin PA9 */
  GPIO_InitStruct.Pin = Gate_Driver_Pin|GPIO_PIN_9;
  GPIO_InitStruct.Mode = GPIO_MODE_OUTPUT_PP;
 80004c4:	2301      	movs	r3, #1
  GPIO_InitStruct.Pull = GPIO_NOPULL;
  GPIO_InitStruct.Speed = GPIO_SPEED_FREQ_LOW;
  HAL_GPIO_Init(GPIOA, &GPIO_InitStruct);
 80004c6:	a903      	add	r1, sp, #12
 80004c8:	0028      	movs	r0, r5
  GPIO_InitStruct.Mode = GPIO_MODE_OUTPUT_PP;
 80004ca:	9304      	str	r3, [sp, #16]
  GPIO_InitStruct.Pin = Gate_Driver_Pin|GPIO_PIN_9;
 80004cc:	9703      	str	r7, [sp, #12]
  GPIO_InitStruct.Pull = GPIO_NOPULL;
 80004ce:	9405      	str	r4, [sp, #20]
  GPIO_InitStruct.Speed = GPIO_SPEED_FREQ_LOW;
 80004d0:	9406      	str	r4, [sp, #24]
  HAL_GPIO_Init(GPIOA, &GPIO_InitStruct);
 80004d2:	f001 fc15 	bl	8001d00 <HAL_GPIO_Init>

  /*Configure GPIO pins : PA2 PA3 */
  GPIO_InitStruct.Pin = GPIO_PIN_2|GPIO_PIN_3;
 80004d6:	230c      	movs	r3, #12
  GPIO_InitStruct.Mode = GPIO_MODE_ANALOG;
  GPIO_InitStruct.Pull = GPIO_NOPULL;
  HAL_GPIO_Init(GPIOA, &GPIO_InitStruct);
 80004d8:	a903      	add	r1, sp, #12
 80004da:	0028      	movs	r0, r5
  GPIO_InitStruct.Pin = GPIO_PIN_2|GPIO_PIN_3;
 80004dc:	9303      	str	r3, [sp, #12]
  GPIO_InitStruct.Mode = GPIO_MODE_ANALOG;
 80004de:	9604      	str	r6, [sp, #16]
  GPIO_InitStruct.Pull = GPIO_NOPULL;
 80004e0:	9405      	str	r4, [sp, #20]
  HAL_GPIO_Init(GPIOA, &GPIO_InitStruct);
 80004e2:	f001 fc0d 	bl	8001d00 <HAL_GPIO_Init>

  /*Configure GPIO pin : PtPin */
  GPIO_InitStruct.Pin = ENCDR_Switch_Pin;
 80004e6:	2302      	movs	r3, #2
  GPIO_InitStruct.Mode = GPIO_MODE_INPUT;
  GPIO_InitStruct.Pull = GPIO_NOPULL;
  HAL_GPIO_Init(ENCDR_Switch_GPIO_Port, &GPIO_InitStruct);
 80004e8:	a903      	add	r1, sp, #12
 80004ea:	4808      	ldr	r0, [pc, #32]	; (800050c <MX_GPIO_Init+0xc0>)
  GPIO_InitStruct.Pin = ENCDR_Switch_Pin;
 80004ec:	9303      	str	r3, [sp, #12]
  GPIO_InitStruct.Mode = GPIO_MODE_INPUT;
 80004ee:	9404      	str	r4, [sp, #16]
  GPIO_InitStruct.Pull = GPIO_NOPULL;
 80004f0:	9405      	str	r4, [sp, #20]
  HAL_GPIO_Init(ENCDR_Switch_GPIO_Port, &GPIO_InitStruct);
 80004f2:	f001 fc05 	bl	8001d00 <HAL_GPIO_Init>

}
 80004f6:	b009      	add	sp, #36	; 0x24
 80004f8:	bdf0      	pop	{r4, r5, r6, r7, pc}
 80004fa:	46c0      	nop			; (mov r8, r8)
 80004fc:	40021000 	.word	0x40021000
 8000500:	00000202 	.word	0x00000202
 8000504:	48001400 	.word	0x48001400
 8000508:	000004d1 	.word	0x000004d1
 800050c:	48000400 	.word	0x48000400

08000510 <SystemClock_Config>:
/**
  * @brief System Clock Configuration
  * @retval None
  */
void SystemClock_Config(void)
{
 8000510:	b530      	push	{r4, r5, lr}
  RCC_OscInitTypeDef RCC_OscInitStruct = {0};
  RCC_ClkInitTypeDef RCC_ClkInitStruct = {0};
 8000512:	2510      	movs	r5, #16
{
 8000514:	b091      	sub	sp, #68	; 0x44
  RCC_OscInitTypeDef RCC_OscInitStruct = {0};
 8000516:	222c      	movs	r2, #44	; 0x2c
 8000518:	2100      	movs	r1, #0
 800051a:	a805      	add	r0, sp, #20
 800051c:	f001 ffad 	bl	800247a <memset>
  RCC_ClkInitTypeDef RCC_ClkInitStruct = {0};
 8000520:	002a      	movs	r2, r5
 8000522:	2100      	movs	r1, #0
 8000524:	4668      	mov	r0, sp
 8000526:	f001 ffa8 	bl	800247a <memset>

  /** Initializes the CPU, AHB and APB busses clocks 
  */
  RCC_OscInitStruct.OscillatorType = RCC_OSCILLATORTYPE_HSI|RCC_OSCILLATORTYPE_HSI14;
 800052a:	2312      	movs	r3, #18
 800052c:	9304      	str	r3, [sp, #16]
  RCC_OscInitStruct.HSI14State = RCC_HSI14_ON;
  RCC_OscInitStruct.HSICalibrationValue = RCC_HSICALIBRATION_DEFAULT;
  RCC_OscInitStruct.HSI14CalibrationValue = 16;
  RCC_OscInitStruct.PLL.PLLState = RCC_PLL_ON;
  RCC_OscInitStruct.PLL.PLLSource = RCC_PLLSOURCE_HSI;
  RCC_OscInitStruct.PLL.PLLMUL = RCC_PLL_MUL12;
 800052e:	23a0      	movs	r3, #160	; 0xa0
  RCC_OscInitStruct.HSIState = RCC_HSI_ON;
 8000530:	2401      	movs	r4, #1
  RCC_OscInitStruct.HSICalibrationValue = RCC_HSICALIBRATION_DEFAULT;
 8000532:	9508      	str	r5, [sp, #32]
  RCC_OscInitStruct.HSI14CalibrationValue = 16;
 8000534:	950a      	str	r5, [sp, #40]	; 0x28
  RCC_OscInitStruct.PLL.PLLMUL = RCC_PLL_MUL12;
 8000536:	039b      	lsls	r3, r3, #14
  RCC_OscInitStruct.PLL.PLLState = RCC_PLL_ON;
 8000538:	3d0e      	subs	r5, #14
  RCC_OscInitStruct.PLL.PREDIV = RCC_PREDIV_DIV1;
  if (HAL_RCC_OscConfig(&RCC_OscInitStruct) != HAL_OK)
 800053a:	a804      	add	r0, sp, #16
  RCC_OscInitStruct.PLL.PLLMUL = RCC_PLL_MUL12;
 800053c:	930e      	str	r3, [sp, #56]	; 0x38
  RCC_OscInitStruct.HSIState = RCC_HSI_ON;
 800053e:	9407      	str	r4, [sp, #28]
  RCC_OscInitStruct.HSI14State = RCC_HSI14_ON;
 8000540:	9409      	str	r4, [sp, #36]	; 0x24
  RCC_OscInitStruct.PLL.PLLState = RCC_PLL_ON;
 8000542:	950c      	str	r5, [sp, #48]	; 0x30
  if (HAL_RCC_OscConfig(&RCC_OscInitStruct) != HAL_OK)
 8000544:	f001 fc98 	bl	8001e78 <HAL_RCC_OscConfig>
  {
    Error_Handler();
  }
  /** Initializes the CPU, AHB and APB busses clocks 
  */
  RCC_ClkInitStruct.ClockType = RCC_CLOCKTYPE_HCLK|RCC_CLOCKTYPE_SYSCLK
 8000548:	2307      	movs	r3, #7
 800054a:	9300      	str	r3, [sp, #0]
                              |RCC_CLOCKTYPE_PCLK1;
  RCC_ClkInitStruct.SYSCLKSource = RCC_SYSCLKSOURCE_PLLCLK;
  RCC_ClkInitStruct.AHBCLKDivider = RCC_SYSCLK_DIV1;
 800054c:	2300      	movs	r3, #0
  RCC_ClkInitStruct.APB1CLKDivider = RCC_HCLK_DIV1;

  if (HAL_RCC_ClockConfig(&RCC_ClkInitStruct, FLASH_LATENCY_1) != HAL_OK)
 800054e:	0021      	movs	r1, r4
 8000550:	4668      	mov	r0, sp
  RCC_ClkInitStruct.SYSCLKSource = RCC_SYSCLKSOURCE_PLLCLK;
 8000552:	9501      	str	r5, [sp, #4]
  RCC_ClkInitStruct.AHBCLKDivider = RCC_SYSCLK_DIV1;
 8000554:	9302      	str	r3, [sp, #8]
  RCC_ClkInitStruct.APB1CLKDivider = RCC_HCLK_DIV1;
 8000556:	9303      	str	r3, [sp, #12]
  if (HAL_RCC_ClockConfig(&RCC_ClkInitStruct, FLASH_LATENCY_1) != HAL_OK)
 8000558:	f001 fec2 	bl	80022e0 <HAL_RCC_ClockConfig>
  {
    Error_Handler();
  }
}
 800055c:	b011      	add	sp, #68	; 0x44
 800055e:	bd30      	pop	{r4, r5, pc}

08000560 <main>:
{
 8000560:	b510      	push	{r4, lr}
  HAL_Init();
 8000562:	f001 f957 	bl	8001814 <HAL_Init>
  SystemClock_Config();
 8000566:	f7ff ffd3 	bl	8000510 <SystemClock_Config>
  MX_GPIO_Init();
 800056a:	f7ff ff6f 	bl	800044c <MX_GPIO_Init>
  MX_ADC_Init();
 800056e:	f7ff fe61 	bl	8000234 <MX_ADC_Init>
  HAL_ADC_Start(&hadc);
 8000572:	4803      	ldr	r0, [pc, #12]	; (8000580 <main+0x20>)
 8000574:	f001 fa74 	bl	8001a60 <HAL_ADC_Start>
  Spot_Welder_Main();
 8000578:	f000 ff48 	bl	800140c <Spot_Welder_Main>
 800057c:	e7fe      	b.n	800057c <main+0x1c>
 800057e:	46c0      	nop			; (mov r8, r8)
 8000580:	20000478 	.word	0x20000478

08000584 <Error_Handler>:
{
  /* USER CODE BEGIN Error_Handler_Debug */
  /* User can add his own implementation to report the HAL error return state */

  /* USER CODE END Error_Handler_Debug */
}
 8000584:	4770      	bx	lr
	...

08000588 <Encoder_Button_Callback>:
void (*Show_Page)(uint8_t screen);
void (*Execute_Page_Element)(uint8_t screen , uint8_t button, int16_t count);

void Encoder_Button_Callback(uint8_t Clicked_Count)
    {
    Encoder_Clicks = Clicked_Count;
 8000588:	4b01      	ldr	r3, [pc, #4]	; (8000590 <Encoder_Button_Callback+0x8>)
 800058a:	7018      	strb	r0, [r3, #0]
    }
 800058c:	4770      	bx	lr
 800058e:	46c0      	nop			; (mov r8, r8)
 8000590:	20000011 	.word	0x20000011

08000594 <Change_Page>:

void Change_Page(uint8_t page_no)
    {

    switch (page_no)
 8000594:	2801      	cmp	r0, #1
 8000596:	d002      	beq.n	800059e <Change_Page+0xa>
 8000598:	2802      	cmp	r0, #2
 800059a:	d00e      	beq.n	80005ba <Change_Page+0x26>
	Elements_In_Page = 4;
	Refresh_Screen = 1;
	break;
	}

    }
 800059c:	4770      	bx	lr
	Show_Page = Show_Page1;
 800059e:	4b0e      	ldr	r3, [pc, #56]	; (80005d8 <Change_Page+0x44>)
 80005a0:	4a0e      	ldr	r2, [pc, #56]	; (80005dc <Change_Page+0x48>)
 80005a2:	601a      	str	r2, [r3, #0]
	Execute_Page_Element = Execute_Page1_Element;
 80005a4:	4b0e      	ldr	r3, [pc, #56]	; (80005e0 <Change_Page+0x4c>)
 80005a6:	4a0f      	ldr	r2, [pc, #60]	; (80005e4 <Change_Page+0x50>)
 80005a8:	601a      	str	r2, [r3, #0]
	Elements_In_Page = 4;
 80005aa:	2204      	movs	r2, #4
	Page_Screen = 1;
 80005ac:	4b0e      	ldr	r3, [pc, #56]	; (80005e8 <Change_Page+0x54>)
 80005ae:	7018      	strb	r0, [r3, #0]
	Elements_In_Page = 4;
 80005b0:	4b0e      	ldr	r3, [pc, #56]	; (80005ec <Change_Page+0x58>)
 80005b2:	701a      	strb	r2, [r3, #0]
	Refresh_Screen = 1;
 80005b4:	4b0e      	ldr	r3, [pc, #56]	; (80005f0 <Change_Page+0x5c>)
 80005b6:	7018      	strb	r0, [r3, #0]
 80005b8:	e7f0      	b.n	800059c <Change_Page+0x8>
	Show_Page = Show_Page2;
 80005ba:	4b07      	ldr	r3, [pc, #28]	; (80005d8 <Change_Page+0x44>)
 80005bc:	4a0d      	ldr	r2, [pc, #52]	; (80005f4 <Change_Page+0x60>)
	Elements_In_Page = 4;
 80005be:	2104      	movs	r1, #4
	Show_Page = Show_Page2;
 80005c0:	601a      	str	r2, [r3, #0]
	Execute_Page_Element = Execute_Page2_Element;
 80005c2:	4b07      	ldr	r3, [pc, #28]	; (80005e0 <Change_Page+0x4c>)
 80005c4:	4a0c      	ldr	r2, [pc, #48]	; (80005f8 <Change_Page+0x64>)
 80005c6:	601a      	str	r2, [r3, #0]
	Page_Screen = 1;
 80005c8:	2301      	movs	r3, #1
 80005ca:	4a07      	ldr	r2, [pc, #28]	; (80005e8 <Change_Page+0x54>)
 80005cc:	7013      	strb	r3, [r2, #0]
	Elements_In_Page = 4;
 80005ce:	4a07      	ldr	r2, [pc, #28]	; (80005ec <Change_Page+0x58>)
 80005d0:	7011      	strb	r1, [r2, #0]
	Refresh_Screen = 1;
 80005d2:	4a07      	ldr	r2, [pc, #28]	; (80005f0 <Change_Page+0x5c>)
 80005d4:	7013      	strb	r3, [r2, #0]
    }
 80005d6:	e7e1      	b.n	800059c <Change_Page+0x8>
 80005d8:	20000528 	.word	0x20000528
 80005dc:	080008d9 	.word	0x080008d9
 80005e0:	2000052c 	.word	0x2000052c
 80005e4:	08000c4d 	.word	0x08000c4d
 80005e8:	20000012 	.word	0x20000012
 80005ec:	20000010 	.word	0x20000010
 80005f0:	2000005c 	.word	0x2000005c
 80005f4:	08000e49 	.word	0x08000e49
 80005f8:	08000f15 	.word	0x08000f15

080005fc <Init_Menu>:

void Init_Menu()
    {
    Encoder.Encoder_Pin_0 = ENCDR_B_Pin;
 80005fc:	4811      	ldr	r0, [pc, #68]	; (8000644 <Init_Menu+0x48>)
 80005fe:	4b12      	ldr	r3, [pc, #72]	; (8000648 <Init_Menu+0x4c>)
    {
 8000600:	b510      	push	{r4, lr}
    Encoder.Encoder_Pin_0 = ENCDR_B_Pin;
 8000602:	6003      	str	r3, [r0, #0]
    Encoder.Encoder_Pin_0_Port = ENCDR_B_GPIO_Port;
    Encoder.Encoder_Pin_1 = ENCDR_A_Pin;
 8000604:	2390      	movs	r3, #144	; 0x90
 8000606:	05db      	lsls	r3, r3, #23
 8000608:	6043      	str	r3, [r0, #4]
    Encoder.Encoder_Pin_0_Port = ENCDR_B_GPIO_Port;
 800060a:	6083      	str	r3, [r0, #8]
    Encoder.Encoder_Pin_1_Port = ENCDR_A_GPIO_Port;
    Encoder_Attach(&Encoder);
 800060c:	f000 fca2 	bl	8000f54 <Encoder_Attach>

    Encoder_Button.Button_Pin = ENCDR_Switch_Pin;
 8000610:	2302      	movs	r3, #2
    Encoder_Button.Button_Pin_Port = ENCDR_Switch_GPIO_Port;
    Encoder_Button.Button_Pressed_Logic = LOW;
 8000612:	2400      	movs	r4, #0
    Encoder_Button.Button_Pin = ENCDR_Switch_Pin;
 8000614:	480d      	ldr	r0, [pc, #52]	; (800064c <Init_Menu+0x50>)
 8000616:	8003      	strh	r3, [r0, #0]
    Encoder_Button.Button_Pin_Port = ENCDR_Switch_GPIO_Port;
 8000618:	4b0d      	ldr	r3, [pc, #52]	; (8000650 <Init_Menu+0x54>)
    Encoder_Button.Button_Pressed_Logic = LOW;
 800061a:	7204      	strb	r4, [r0, #8]
    Encoder_Button.Button_Pin_Port = ENCDR_Switch_GPIO_Port;
 800061c:	6043      	str	r3, [r0, #4]
    Encoder_Button.Callback = Encoder_Button_Callback;
 800061e:	4b0d      	ldr	r3, [pc, #52]	; (8000654 <Init_Menu+0x58>)
 8000620:	6183      	str	r3, [r0, #24]
    Button_Attach(&Encoder_Button);
 8000622:	f7ff fe6d 	bl	8000300 <Button_Attach>
	Show_Page = Show_Page1;
 8000626:	4b0c      	ldr	r3, [pc, #48]	; (8000658 <Init_Menu+0x5c>)
 8000628:	4a0c      	ldr	r2, [pc, #48]	; (800065c <Init_Menu+0x60>)
 800062a:	601a      	str	r2, [r3, #0]
	Execute_Page_Element = Execute_Page1_Element;
 800062c:	4b0c      	ldr	r3, [pc, #48]	; (8000660 <Init_Menu+0x64>)
 800062e:	4a0d      	ldr	r2, [pc, #52]	; (8000664 <Init_Menu+0x68>)
 8000630:	601a      	str	r2, [r3, #0]
	Page_Screen = 1;
 8000632:	2201      	movs	r2, #1
 8000634:	4b0c      	ldr	r3, [pc, #48]	; (8000668 <Init_Menu+0x6c>)
 8000636:	701a      	strb	r2, [r3, #0]
	Elements_In_Page = 4;
 8000638:	4b0c      	ldr	r3, [pc, #48]	; (800066c <Init_Menu+0x70>)
 800063a:	3203      	adds	r2, #3
 800063c:	701a      	strb	r2, [r3, #0]

    Change_Page(1);
    Refresh_Screen = 0;
 800063e:	4b0c      	ldr	r3, [pc, #48]	; (8000670 <Init_Menu+0x74>)
 8000640:	701c      	strb	r4, [r3, #0]
    }
 8000642:	bd10      	pop	{r4, pc}
 8000644:	2000050c 	.word	0x2000050c
 8000648:	00800040 	.word	0x00800040
 800064c:	200004d4 	.word	0x200004d4
 8000650:	48000400 	.word	0x48000400
 8000654:	08000589 	.word	0x08000589
 8000658:	20000528 	.word	0x20000528
 800065c:	080008d9 	.word	0x080008d9
 8000660:	2000052c 	.word	0x2000052c
 8000664:	08000c4d 	.word	0x08000c4d
 8000668:	20000012 	.word	0x20000012
 800066c:	20000010 	.word	0x20000010
 8000670:	2000005c 	.word	0x2000005c

08000674 <Handle_Menu>:

void Handle_Menu()
    {
 8000674:	b5f8      	push	{r3, r4, r5, r6, r7, lr}

    int16_t count = 0;
    count = Encoder_Get_Count(&Encoder);
 8000676:	4c33      	ldr	r4, [pc, #204]	; (8000744 <Handle_Menu+0xd0>)
 8000678:	0020      	movs	r0, r4
 800067a:	f000 fd1d 	bl	80010b8 <Encoder_Get_Count>

    if (!In_Loop)
 800067e:	4e32      	ldr	r6, [pc, #200]	; (8000748 <Handle_Menu+0xd4>)
    count = Encoder_Get_Count(&Encoder);
 8000680:	0003      	movs	r3, r0
    if (!In_Loop)
 8000682:	7831      	ldrb	r1, [r6, #0]
 8000684:	4d31      	ldr	r5, [pc, #196]	; (800074c <Handle_Menu+0xd8>)
 8000686:	2900      	cmp	r1, #0
 8000688:	d140      	bne.n	800070c <Handle_Menu+0x98>
	{

	Foot_Switchn_Flag = 0;
 800068a:	4a31      	ldr	r2, [pc, #196]	; (8000750 <Handle_Menu+0xdc>)
 800068c:	7011      	strb	r1, [r2, #0]

	if (count < 0)
 800068e:	2800      	cmp	r0, #0
 8000690:	da2d      	bge.n	80006ee <Handle_Menu+0x7a>
	    {
	    Encoder_Set_Count(&Encoder, 0);
 8000692:	0020      	movs	r0, r4
 8000694:	f000 fd13 	bl	80010be <Encoder_Set_Count>
	    Page_Screen++;
 8000698:	4a2e      	ldr	r2, [pc, #184]	; (8000754 <Handle_Menu+0xe0>)
	    if(Page_Screen > Elements_In_Page)
 800069a:	492f      	ldr	r1, [pc, #188]	; (8000758 <Handle_Menu+0xe4>)
	    Page_Screen++;
 800069c:	7813      	ldrb	r3, [r2, #0]
	    if(Page_Screen > Elements_In_Page)
 800069e:	7809      	ldrb	r1, [r1, #0]
	    Page_Screen++;
 80006a0:	3301      	adds	r3, #1
 80006a2:	b2db      	uxtb	r3, r3
 80006a4:	7013      	strb	r3, [r2, #0]
	    if(Page_Screen > Elements_In_Page)
 80006a6:	428b      	cmp	r3, r1
 80006a8:	d900      	bls.n	80006ac <Handle_Menu+0x38>
		{
		Page_Screen = Elements_In_Page;
 80006aa:	7011      	strb	r1, [r2, #0]
	    Page_Screen--;
	    if(Page_Screen == 0)
		{
		Page_Screen = 1;
		}
	    Show_Page(Page_Screen);
 80006ac:	4b2b      	ldr	r3, [pc, #172]	; (800075c <Handle_Menu+0xe8>)
 80006ae:	7810      	ldrb	r0, [r2, #0]
 80006b0:	681b      	ldr	r3, [r3, #0]
 80006b2:	4798      	blx	r3
	    }

	if (Encoder_Clicks == 1)
 80006b4:	782b      	ldrb	r3, [r5, #0]
 80006b6:	2b01      	cmp	r3, #1
 80006b8:	d10d      	bne.n	80006d6 <Handle_Menu+0x62>
	    {
	    Encoder_Clicks = 0;
 80006ba:	2700      	movs	r7, #0
	    In_Loop = 1; // reset to exit loop
 80006bc:	7033      	strb	r3, [r6, #0]
	    Execute_Page_Element(Page_Screen, 0, 0);
 80006be:	4b25      	ldr	r3, [pc, #148]	; (8000754 <Handle_Menu+0xe0>)
 80006c0:	0039      	movs	r1, r7
 80006c2:	7818      	ldrb	r0, [r3, #0]
 80006c4:	4b26      	ldr	r3, [pc, #152]	; (8000760 <Handle_Menu+0xec>)
 80006c6:	003a      	movs	r2, r7
 80006c8:	681b      	ldr	r3, [r3, #0]
	    Encoder_Clicks = 0;
 80006ca:	702f      	strb	r7, [r5, #0]
	    Execute_Page_Element(Page_Screen, 0, 0);
 80006cc:	4798      	blx	r3
	    Encoder_Set_Count(&Encoder, 0);
 80006ce:	0039      	movs	r1, r7
 80006d0:	0020      	movs	r0, r4
 80006d2:	f000 fcf4 	bl	80010be <Encoder_Set_Count>
	    }

	if(Refresh_Screen)
 80006d6:	4b23      	ldr	r3, [pc, #140]	; (8000764 <Handle_Menu+0xf0>)
 80006d8:	781a      	ldrb	r2, [r3, #0]
 80006da:	2a00      	cmp	r2, #0
 80006dc:	d006      	beq.n	80006ec <Handle_Menu+0x78>
	    {
	    Refresh_Screen = 0;
 80006de:	2200      	movs	r2, #0
 80006e0:	701a      	strb	r2, [r3, #0]
	    Show_Page(Page_Screen);
 80006e2:	4b1c      	ldr	r3, [pc, #112]	; (8000754 <Handle_Menu+0xe0>)
 80006e4:	7818      	ldrb	r0, [r3, #0]
 80006e6:	4b1d      	ldr	r3, [pc, #116]	; (800075c <Handle_Menu+0xe8>)
 80006e8:	681b      	ldr	r3, [r3, #0]
 80006ea:	4798      	blx	r3
	    Execute_Page_Element(Page_Screen, Encoder_Clicks, count);
	    }

	}

    }
 80006ec:	bdf8      	pop	{r3, r4, r5, r6, r7, pc}
	if (count > 0)
 80006ee:	2800      	cmp	r0, #0
 80006f0:	d0e0      	beq.n	80006b4 <Handle_Menu+0x40>
	    Encoder_Set_Count(&Encoder, 0);
 80006f2:	0020      	movs	r0, r4
 80006f4:	f000 fce3 	bl	80010be <Encoder_Set_Count>
	    Page_Screen--;
 80006f8:	4a16      	ldr	r2, [pc, #88]	; (8000754 <Handle_Menu+0xe0>)
 80006fa:	7813      	ldrb	r3, [r2, #0]
 80006fc:	3b01      	subs	r3, #1
 80006fe:	b2db      	uxtb	r3, r3
	    if(Page_Screen == 0)
 8000700:	2b00      	cmp	r3, #0
 8000702:	d001      	beq.n	8000708 <Handle_Menu+0x94>
		Page_Screen = 1;
 8000704:	7013      	strb	r3, [r2, #0]
 8000706:	e7d1      	b.n	80006ac <Handle_Menu+0x38>
 8000708:	2301      	movs	r3, #1
 800070a:	e7fb      	b.n	8000704 <Handle_Menu+0x90>
 800070c:	4a14      	ldr	r2, [pc, #80]	; (8000760 <Handle_Menu+0xec>)
	if (Encoder_Clicks || count)
 800070e:	7829      	ldrb	r1, [r5, #0]
 8000710:	6817      	ldr	r7, [r2, #0]
 8000712:	4a10      	ldr	r2, [pc, #64]	; (8000754 <Handle_Menu+0xe0>)
 8000714:	7810      	ldrb	r0, [r2, #0]
 8000716:	2900      	cmp	r1, #0
 8000718:	d101      	bne.n	800071e <Handle_Menu+0xaa>
 800071a:	2b00      	cmp	r3, #0
 800071c:	d00d      	beq.n	800073a <Handle_Menu+0xc6>
	    Foot_Switchn_Flag = 0;
 800071e:	2600      	movs	r6, #0
 8000720:	4a0b      	ldr	r2, [pc, #44]	; (8000750 <Handle_Menu+0xdc>)
 8000722:	7016      	strb	r6, [r2, #0]
	    Execute_Page_Element(Page_Screen, Encoder_Clicks, count);
 8000724:	001a      	movs	r2, r3
 8000726:	47b8      	blx	r7
	    Encoder_Set_Count(&Encoder, 0);
 8000728:	0031      	movs	r1, r6
 800072a:	0020      	movs	r0, r4
 800072c:	f000 fcc7 	bl	80010be <Encoder_Set_Count>
	    Refresh_Screen = 1;
 8000730:	2201      	movs	r2, #1
 8000732:	4b0c      	ldr	r3, [pc, #48]	; (8000764 <Handle_Menu+0xf0>)
	    Encoder_Clicks = 0;
 8000734:	702e      	strb	r6, [r5, #0]
	    Refresh_Screen = 1;
 8000736:	701a      	strb	r2, [r3, #0]
 8000738:	e7d8      	b.n	80006ec <Handle_Menu+0x78>
	    Execute_Page_Element(Page_Screen, Encoder_Clicks, count);
 800073a:	001a      	movs	r2, r3
 800073c:	0019      	movs	r1, r3
 800073e:	47b8      	blx	r7
    }
 8000740:	e7d4      	b.n	80006ec <Handle_Menu+0x78>
 8000742:	46c0      	nop			; (mov r8, r8)
 8000744:	2000050c 	.word	0x2000050c
 8000748:	20000524 	.word	0x20000524
 800074c:	20000011 	.word	0x20000011
 8000750:	20000068 	.word	0x20000068
 8000754:	20000012 	.word	0x20000012
 8000758:	20000010 	.word	0x20000010
 800075c:	20000528 	.word	0x20000528
 8000760:	2000052c 	.word	0x2000052c
 8000764:	2000005c 	.word	0x2000005c

08000768 <Show_Page1_Screen1>:
#include "menu_main.h"

extern uint8_t Foot_Switchn_Flag;

void Show_Page1_Screen1()
    {
 8000768:	b510      	push	{r4, lr}
    ssd1306_Fill(Black);
 800076a:	2000      	movs	r0, #0
 800076c:	f000 febe 	bl	80014ec <ssd1306_Fill>
    ssd1306_SetCursor(0, 0);
 8000770:	2100      	movs	r1, #0
 8000772:	0008      	movs	r0, r1
 8000774:	f000 ffd6 	bl	8001724 <ssd1306_SetCursor>
    ssd1306_WriteString(STR_Back, Font_11x18, Black);
 8000778:	4c0e      	ldr	r4, [pc, #56]	; (80007b4 <Show_Page1_Screen1+0x4c>)
 800077a:	2300      	movs	r3, #0
 800077c:	6862      	ldr	r2, [r4, #4]
 800077e:	6821      	ldr	r1, [r4, #0]
 8000780:	480d      	ldr	r0, [pc, #52]	; (80007b8 <Show_Page1_Screen1+0x50>)
 8000782:	f000 ffbb 	bl	80016fc <ssd1306_WriteString>
    ssd1306_SetCursor(0, 20);
 8000786:	2114      	movs	r1, #20
 8000788:	2000      	movs	r0, #0
 800078a:	f000 ffcb 	bl	8001724 <ssd1306_SetCursor>
    ssd1306_WriteString(STR_Auto_Pulse, Font_11x18, White);
 800078e:	2301      	movs	r3, #1
 8000790:	6821      	ldr	r1, [r4, #0]
 8000792:	6862      	ldr	r2, [r4, #4]
 8000794:	4809      	ldr	r0, [pc, #36]	; (80007bc <Show_Page1_Screen1+0x54>)
 8000796:	f000 ffb1 	bl	80016fc <ssd1306_WriteString>
    ssd1306_SetCursor(0, 40);
 800079a:	2128      	movs	r1, #40	; 0x28
 800079c:	2000      	movs	r0, #0
 800079e:	f000 ffc1 	bl	8001724 <ssd1306_SetCursor>
    ssd1306_WriteString(STR_Batt_Alarm, Font_11x18, White);
 80007a2:	cc06      	ldmia	r4!, {r1, r2}
 80007a4:	2301      	movs	r3, #1
 80007a6:	4806      	ldr	r0, [pc, #24]	; (80007c0 <Show_Page1_Screen1+0x58>)
 80007a8:	f000 ffa8 	bl	80016fc <ssd1306_WriteString>
    ssd1306_UpdateScreen();
 80007ac:	f000 feac 	bl	8001508 <ssd1306_UpdateScreen>
    }
 80007b0:	bd10      	pop	{r4, pc}
 80007b2:	46c0      	nop			; (mov r8, r8)
 80007b4:	20000000 	.word	0x20000000
 80007b8:	08003a0d 	.word	0x08003a0d
 80007bc:	080039f6 	.word	0x080039f6
 80007c0:	08003a12 	.word	0x08003a12

080007c4 <Show_Page1_Screen2>:


void Show_Page1_Screen2()
    {
 80007c4:	b510      	push	{r4, lr}
    ssd1306_Fill(Black);
 80007c6:	2000      	movs	r0, #0
 80007c8:	f000 fe90 	bl	80014ec <ssd1306_Fill>
    ssd1306_SetCursor(0, 0);
 80007cc:	2100      	movs	r1, #0
 80007ce:	0008      	movs	r0, r1
 80007d0:	f000 ffa8 	bl	8001724 <ssd1306_SetCursor>
    ssd1306_WriteString(STR_Back, Font_11x18, White);
 80007d4:	4c0e      	ldr	r4, [pc, #56]	; (8000810 <Show_Page1_Screen2+0x4c>)
 80007d6:	2301      	movs	r3, #1
 80007d8:	6862      	ldr	r2, [r4, #4]
 80007da:	6821      	ldr	r1, [r4, #0]
 80007dc:	480d      	ldr	r0, [pc, #52]	; (8000814 <Show_Page1_Screen2+0x50>)
 80007de:	f000 ff8d 	bl	80016fc <ssd1306_WriteString>
    ssd1306_SetCursor(0, 20);
 80007e2:	2114      	movs	r1, #20
 80007e4:	2000      	movs	r0, #0
 80007e6:	f000 ff9d 	bl	8001724 <ssd1306_SetCursor>
    ssd1306_WriteString(STR_Auto_Pulse, Font_11x18, Black);
 80007ea:	2300      	movs	r3, #0
 80007ec:	6821      	ldr	r1, [r4, #0]
 80007ee:	6862      	ldr	r2, [r4, #4]
 80007f0:	4809      	ldr	r0, [pc, #36]	; (8000818 <Show_Page1_Screen2+0x54>)
 80007f2:	f000 ff83 	bl	80016fc <ssd1306_WriteString>
    ssd1306_SetCursor(0, 40);
 80007f6:	2128      	movs	r1, #40	; 0x28
 80007f8:	2000      	movs	r0, #0
 80007fa:	f000 ff93 	bl	8001724 <ssd1306_SetCursor>
    ssd1306_WriteString(STR_Batt_Alarm, Font_11x18, White);
 80007fe:	cc06      	ldmia	r4!, {r1, r2}
 8000800:	2301      	movs	r3, #1
 8000802:	4806      	ldr	r0, [pc, #24]	; (800081c <Show_Page1_Screen2+0x58>)
 8000804:	f000 ff7a 	bl	80016fc <ssd1306_WriteString>
    ssd1306_UpdateScreen();
 8000808:	f000 fe7e 	bl	8001508 <ssd1306_UpdateScreen>
    }
 800080c:	bd10      	pop	{r4, pc}
 800080e:	46c0      	nop			; (mov r8, r8)
 8000810:	20000000 	.word	0x20000000
 8000814:	08003a0d 	.word	0x08003a0d
 8000818:	080039f6 	.word	0x080039f6
 800081c:	08003a12 	.word	0x08003a12

08000820 <Show_Page1_Screen3>:

void Show_Page1_Screen3()
    {
 8000820:	b510      	push	{r4, lr}

    ssd1306_Fill(Black);
 8000822:	2000      	movs	r0, #0
 8000824:	f000 fe62 	bl	80014ec <ssd1306_Fill>
    ssd1306_SetCursor(0, 0);
 8000828:	2100      	movs	r1, #0
 800082a:	0008      	movs	r0, r1
 800082c:	f000 ff7a 	bl	8001724 <ssd1306_SetCursor>
    ssd1306_WriteString(STR_Back, Font_11x18, White);
 8000830:	4c0e      	ldr	r4, [pc, #56]	; (800086c <Show_Page1_Screen3+0x4c>)
 8000832:	2301      	movs	r3, #1
 8000834:	6862      	ldr	r2, [r4, #4]
 8000836:	6821      	ldr	r1, [r4, #0]
 8000838:	480d      	ldr	r0, [pc, #52]	; (8000870 <Show_Page1_Screen3+0x50>)
 800083a:	f000 ff5f 	bl	80016fc <ssd1306_WriteString>
    ssd1306_SetCursor(0, 20);
 800083e:	2114      	movs	r1, #20
 8000840:	2000      	movs	r0, #0
 8000842:	f000 ff6f 	bl	8001724 <ssd1306_SetCursor>
    ssd1306_WriteString(STR_Auto_Pulse, Font_11x18, White);
 8000846:	2301      	movs	r3, #1
 8000848:	6821      	ldr	r1, [r4, #0]
 800084a:	6862      	ldr	r2, [r4, #4]
 800084c:	4809      	ldr	r0, [pc, #36]	; (8000874 <Show_Page1_Screen3+0x54>)
 800084e:	f000 ff55 	bl	80016fc <ssd1306_WriteString>
    ssd1306_SetCursor(0, 40);
 8000852:	2128      	movs	r1, #40	; 0x28
 8000854:	2000      	movs	r0, #0
 8000856:	f000 ff65 	bl	8001724 <ssd1306_SetCursor>
    ssd1306_WriteString(STR_Batt_Alarm, Font_11x18, Black);
 800085a:	cc06      	ldmia	r4!, {r1, r2}
 800085c:	2300      	movs	r3, #0
 800085e:	4806      	ldr	r0, [pc, #24]	; (8000878 <Show_Page1_Screen3+0x58>)
 8000860:	f000 ff4c 	bl	80016fc <ssd1306_WriteString>
    ssd1306_UpdateScreen();
 8000864:	f000 fe50 	bl	8001508 <ssd1306_UpdateScreen>

    }
 8000868:	bd10      	pop	{r4, pc}
 800086a:	46c0      	nop			; (mov r8, r8)
 800086c:	20000000 	.word	0x20000000
 8000870:	08003a0d 	.word	0x08003a0d
 8000874:	080039f6 	.word	0x080039f6
 8000878:	08003a12 	.word	0x08003a12

0800087c <Show_Page1_Screen4>:

void Show_Page1_Screen4()
    {
 800087c:	b510      	push	{r4, lr}

    ssd1306_Fill(Black);
 800087e:	2000      	movs	r0, #0
 8000880:	f000 fe34 	bl	80014ec <ssd1306_Fill>
    ssd1306_SetCursor(0, 0);
 8000884:	2100      	movs	r1, #0
 8000886:	0008      	movs	r0, r1
 8000888:	f000 ff4c 	bl	8001724 <ssd1306_SetCursor>
    ssd1306_WriteString(STR_Auto_Pulse, Font_11x18, White);
 800088c:	4c0e      	ldr	r4, [pc, #56]	; (80008c8 <Show_Page1_Screen4+0x4c>)
 800088e:	2301      	movs	r3, #1
 8000890:	6862      	ldr	r2, [r4, #4]
 8000892:	6821      	ldr	r1, [r4, #0]
 8000894:	480d      	ldr	r0, [pc, #52]	; (80008cc <Show_Page1_Screen4+0x50>)
 8000896:	f000 ff31 	bl	80016fc <ssd1306_WriteString>
    ssd1306_SetCursor(0, 20);
 800089a:	2114      	movs	r1, #20
 800089c:	2000      	movs	r0, #0
 800089e:	f000 ff41 	bl	8001724 <ssd1306_SetCursor>
    ssd1306_WriteString(STR_Batt_Alarm, Font_11x18, White);
 80008a2:	2301      	movs	r3, #1
 80008a4:	6821      	ldr	r1, [r4, #0]
 80008a6:	6862      	ldr	r2, [r4, #4]
 80008a8:	4809      	ldr	r0, [pc, #36]	; (80008d0 <Show_Page1_Screen4+0x54>)
 80008aa:	f000 ff27 	bl	80016fc <ssd1306_WriteString>
    ssd1306_SetCursor(0, 40);
 80008ae:	2128      	movs	r1, #40	; 0x28
 80008b0:	2000      	movs	r0, #0
 80008b2:	f000 ff37 	bl	8001724 <ssd1306_SetCursor>
    ssd1306_WriteString(STR_Shrt_Pulse, Font_11x18, Black);
 80008b6:	cc06      	ldmia	r4!, {r1, r2}
 80008b8:	2300      	movs	r3, #0
 80008ba:	4806      	ldr	r0, [pc, #24]	; (80008d4 <Show_Page1_Screen4+0x58>)
 80008bc:	f000 ff1e 	bl	80016fc <ssd1306_WriteString>
    ssd1306_UpdateScreen();
 80008c0:	f000 fe22 	bl	8001508 <ssd1306_UpdateScreen>

    }
 80008c4:	bd10      	pop	{r4, pc}
 80008c6:	46c0      	nop			; (mov r8, r8)
 80008c8:	20000000 	.word	0x20000000
 80008cc:	080039f6 	.word	0x080039f6
 80008d0:	08003a12 	.word	0x08003a12
 80008d4:	08003a35 	.word	0x08003a35

080008d8 <Show_Page1>:

void Show_Page1(uint8_t screen)
    {

    switch (screen)
 80008d8:	3801      	subs	r0, #1
    {
 80008da:	b510      	push	{r4, lr}
    switch (screen)
 80008dc:	2803      	cmp	r0, #3
 80008de:	d805      	bhi.n	80008ec <Show_Page1+0x14>
 80008e0:	f7ff fc12 	bl	8000108 <__gnu_thumb1_case_uqi>
 80008e4:	0b080502 	.word	0x0b080502
	{
    case 1:
	Show_Page1_Screen1();
 80008e8:	f7ff ff3e 	bl	8000768 <Show_Page1_Screen1>
	break;
    case 4:
	Show_Page1_Screen4();
	break;
	}
    }
 80008ec:	bd10      	pop	{r4, pc}
	Show_Page1_Screen2();
 80008ee:	f7ff ff69 	bl	80007c4 <Show_Page1_Screen2>
	break;
 80008f2:	e7fb      	b.n	80008ec <Show_Page1+0x14>
	Show_Page1_Screen3();
 80008f4:	f7ff ff94 	bl	8000820 <Show_Page1_Screen3>
	break;
 80008f8:	e7f8      	b.n	80008ec <Show_Page1+0x14>
	Show_Page1_Screen4();
 80008fa:	f7ff ffbf 	bl	800087c <Show_Page1_Screen4>
    }
 80008fe:	e7f5      	b.n	80008ec <Show_Page1+0x14>

08000900 <Execute_Page1_Element1>:

void Execute_Page1_Element1(uint8_t button, int16_t count)
    {
 8000900:	b5f0      	push	{r4, r5, r6, r7, lr}

    char temp[10];

    int16_t bat_voltage;

    if (In_Loop)
 8000902:	4b7f      	ldr	r3, [pc, #508]	; (8000b00 <Execute_Page1_Element1+0x200>)
    {
 8000904:	b085      	sub	sp, #20
    if (In_Loop)
 8000906:	781a      	ldrb	r2, [r3, #0]
    {
 8000908:	000c      	movs	r4, r1
    if (In_Loop)
 800090a:	2a00      	cmp	r2, #0
 800090c:	d100      	bne.n	8000910 <Execute_Page1_Element1+0x10>
 800090e:	e0c6      	b.n	8000a9e <Execute_Page1_Element1+0x19e>
	{

        if(button == 1)
 8000910:	2801      	cmp	r0, #1
 8000912:	d101      	bne.n	8000918 <Execute_Page1_Element1+0x18>
            {
            In_Loop = 0; // exit loop
 8000914:	2200      	movs	r2, #0
 8000916:	701a      	strb	r2, [r3, #0]
            }

	Set_Main_Pulse_Duration(count + Get_Main_Pulse_Duration());
 8000918:	f000 fd32 	bl	8001380 <Get_Main_Pulse_Duration>
 800091c:	1900      	adds	r0, r0, r4
 800091e:	b200      	sxth	r0, r0
 8000920:	f000 fd20 	bl	8001364 <Set_Main_Pulse_Duration>


	HAL_ADC_PollForConversion(&hadc, 10);
 8000924:	4c77      	ldr	r4, [pc, #476]	; (8000b04 <Execute_Page1_Element1+0x204>)
 8000926:	210a      	movs	r1, #10
 8000928:	0020      	movs	r0, r4
 800092a:	f001 f8c5 	bl	8001ab8 <HAL_ADC_PollForConversion>
	bat_voltage = HAL_ADC_GetValue(&hadc)*13;
 800092e:	0020      	movs	r0, r4
 8000930:	f001 f920 	bl	8001b74 <HAL_ADC_GetValue>
 8000934:	260d      	movs	r6, #13
 8000936:	4346      	muls	r6, r0

	if(bat_voltage < Get_Batt_Alarm())
 8000938:	f000 fd50 	bl	80013dc <Get_Batt_Alarm>
	    {
	    //Disble_Welder();
	    }

	if (Foot_Switchn_Flag)
 800093c:	4b72      	ldr	r3, [pc, #456]	; (8000b08 <Execute_Page1_Element1+0x208>)
	if(bat_voltage < Get_Batt_Alarm())
 800093e:	b236      	sxth	r6, r6
	if (Foot_Switchn_Flag)
 8000940:	781a      	ldrb	r2, [r3, #0]
 8000942:	4c72      	ldr	r4, [pc, #456]	; (8000b0c <Execute_Page1_Element1+0x20c>)
 8000944:	2a00      	cmp	r2, #0
 8000946:	d03c      	beq.n	80009c2 <Execute_Page1_Element1+0xc2>
	    {
	    Foot_Switchn_Flag = 0;
 8000948:	2500      	movs	r5, #0
 800094a:	701d      	strb	r5, [r3, #0]

	    if (Get_Welder_Status())
 800094c:	f000 fd4c 	bl	80013e8 <Get_Welder_Status>
 8000950:	0007      	movs	r7, r0
 8000952:	42a8      	cmp	r0, r5
 8000954:	d100      	bne.n	8000958 <Execute_Page1_Element1+0x58>
 8000956:	e0a4      	b.n	8000aa2 <Execute_Page1_Element1+0x1a2>
		{
		ssd1306_Fill(Black);
 8000958:	0028      	movs	r0, r5
 800095a:	f000 fdc7 	bl	80014ec <ssd1306_Fill>
		ssd1306_SetCursor(0, 0);
 800095e:	0029      	movs	r1, r5
 8000960:	0028      	movs	r0, r5
 8000962:	f000 fedf 	bl	8001724 <ssd1306_SetCursor>
		ssd1306_WriteString("Pulse:", Font_11x18, White);
 8000966:	2301      	movs	r3, #1
 8000968:	6821      	ldr	r1, [r4, #0]
 800096a:	6862      	ldr	r2, [r4, #4]
 800096c:	4868      	ldr	r0, [pc, #416]	; (8000b10 <Execute_Page1_Element1+0x210>)
 800096e:	f000 fec5 	bl	80016fc <ssd1306_WriteString>
		itoa(Get_Main_Pulse_Duration(), temp, 10);
 8000972:	f000 fd05 	bl	8001380 <Get_Main_Pulse_Duration>
 8000976:	220a      	movs	r2, #10
 8000978:	a901      	add	r1, sp, #4
 800097a:	f001 fd71 	bl	8002460 <itoa>
		ssd1306_WriteString(temp, Font_11x18, White);
 800097e:	2301      	movs	r3, #1
 8000980:	6821      	ldr	r1, [r4, #0]
 8000982:	6862      	ldr	r2, [r4, #4]
 8000984:	a801      	add	r0, sp, #4
 8000986:	f000 feb9 	bl	80016fc <ssd1306_WriteString>
		ssd1306_WriteString("ms", Font_11x18, White);
 800098a:	2301      	movs	r3, #1
 800098c:	6821      	ldr	r1, [r4, #0]
 800098e:	6862      	ldr	r2, [r4, #4]
 8000990:	4860      	ldr	r0, [pc, #384]	; (8000b14 <Execute_Page1_Element1+0x214>)
 8000992:	f000 feb3 	bl	80016fc <ssd1306_WriteString>
		ssd1306_UpdateScreen();
 8000996:	f000 fdb7 	bl	8001508 <ssd1306_UpdateScreen>

		HAL_GPIO_WritePin(Gate_Driver_GPIO_Port, Gate_Driver_Pin,
 800099a:	2090      	movs	r0, #144	; 0x90
 800099c:	2201      	movs	r2, #1
 800099e:	2102      	movs	r1, #2
 80009a0:	05c0      	lsls	r0, r0, #23
 80009a2:	f001 fa63 	bl	8001e6c <HAL_GPIO_WritePin>
			GPIO_PIN_SET);
		HAL_Delay(Get_Main_Pulse_Duration());
 80009a6:	f000 fceb 	bl	8001380 <Get_Main_Pulse_Duration>
 80009aa:	f000 ff55 	bl	8001858 <HAL_Delay>
		HAL_GPIO_WritePin(Gate_Driver_GPIO_Port, Gate_Driver_Pin,
 80009ae:	2090      	movs	r0, #144	; 0x90
 80009b0:	002a      	movs	r2, r5
 80009b2:	05c0      	lsls	r0, r0, #23
 80009b4:	2102      	movs	r1, #2
 80009b6:	f001 fa59 	bl	8001e6c <HAL_GPIO_WritePin>
			GPIO_PIN_RESET);
		HAL_Delay(1000);
 80009ba:	20fa      	movs	r0, #250	; 0xfa
 80009bc:	0080      	lsls	r0, r0, #2
		ssd1306_SetCursor(0, 30);
		ssd1306_WriteString("Lock Out", Font_7x10, White);
		ssd1306_SetCursor(0, 45);
		ssd1306_WriteString("Reboot Welder", Font_7x10, White);
		ssd1306_UpdateScreen();
		HAL_Delay(2000);
 80009be:	f000 ff4b 	bl	8001858 <HAL_Delay>
		}
	    }

	ssd1306_Fill(Black);
 80009c2:	2000      	movs	r0, #0
 80009c4:	f000 fd92 	bl	80014ec <ssd1306_Fill>

	ssd1306_SetCursor(45, 0);
 80009c8:	2100      	movs	r1, #0
 80009ca:	202d      	movs	r0, #45	; 0x2d
 80009cc:	f000 feaa 	bl	8001724 <ssd1306_SetCursor>
	itoa(Get_Main_Pulse_Duration(), temp, 10);
 80009d0:	f000 fcd6 	bl	8001380 <Get_Main_Pulse_Duration>
 80009d4:	220a      	movs	r2, #10
 80009d6:	a901      	add	r1, sp, #4
 80009d8:	f001 fd42 	bl	8002460 <itoa>
	ssd1306_WriteString(temp, Font_11x18, White);
 80009dc:	2301      	movs	r3, #1
 80009de:	6821      	ldr	r1, [r4, #0]
 80009e0:	6862      	ldr	r2, [r4, #4]
 80009e2:	a801      	add	r0, sp, #4
 80009e4:	f000 fe8a 	bl	80016fc <ssd1306_WriteString>
	ssd1306_WriteString("ms", Font_11x18, White);
 80009e8:	cc06      	ldmia	r4!, {r1, r2}
 80009ea:	2301      	movs	r3, #1
 80009ec:	4849      	ldr	r0, [pc, #292]	; (8000b14 <Execute_Page1_Element1+0x214>)
 80009ee:	f000 fe85 	bl	80016fc <ssd1306_WriteString>

	ssd1306_SetCursor(0, 20);
 80009f2:	2114      	movs	r1, #20
 80009f4:	2000      	movs	r0, #0
 80009f6:	f000 fe95 	bl	8001724 <ssd1306_SetCursor>
	ssd1306_WriteString("Battery:", Font_7x10, White);
 80009fa:	4c47      	ldr	r4, [pc, #284]	; (8000b18 <Execute_Page1_Element1+0x218>)
 80009fc:	2301      	movs	r3, #1
 80009fe:	6862      	ldr	r2, [r4, #4]
 8000a00:	6821      	ldr	r1, [r4, #0]
 8000a02:	4846      	ldr	r0, [pc, #280]	; (8000b1c <Execute_Page1_Element1+0x21c>)
 8000a04:	f000 fe7a 	bl	80016fc <ssd1306_WriteString>
	ssd1306_SetCursor(75, 20);
 8000a08:	2114      	movs	r1, #20
 8000a0a:	204b      	movs	r0, #75	; 0x4b
 8000a0c:	f000 fe8a 	bl	8001724 <ssd1306_SetCursor>
	itoa(bat_voltage, temp, 10);
 8000a10:	220a      	movs	r2, #10
 8000a12:	a901      	add	r1, sp, #4
 8000a14:	0030      	movs	r0, r6
 8000a16:	f001 fd23 	bl	8002460 <itoa>
	ssd1306_WriteString(temp, Font_7x10, White);
 8000a1a:	6821      	ldr	r1, [r4, #0]
 8000a1c:	6862      	ldr	r2, [r4, #4]
 8000a1e:	2301      	movs	r3, #1
 8000a20:	a801      	add	r0, sp, #4
 8000a22:	f000 fe6b 	bl	80016fc <ssd1306_WriteString>
	ssd1306_WriteString("mV", Font_7x10, White);
 8000a26:	6862      	ldr	r2, [r4, #4]
 8000a28:	2301      	movs	r3, #1
 8000a2a:	6821      	ldr	r1, [r4, #0]
 8000a2c:	483c      	ldr	r0, [pc, #240]	; (8000b20 <Execute_Page1_Element1+0x220>)
 8000a2e:	f000 fe65 	bl	80016fc <ssd1306_WriteString>

	ssd1306_SetCursor(0, 35);
 8000a32:	2123      	movs	r1, #35	; 0x23
 8000a34:	2000      	movs	r0, #0
 8000a36:	f000 fe75 	bl	8001724 <ssd1306_SetCursor>
	ssd1306_WriteString("Tot Welds:", Font_7x10, White);
 8000a3a:	6862      	ldr	r2, [r4, #4]
 8000a3c:	2301      	movs	r3, #1
 8000a3e:	6821      	ldr	r1, [r4, #0]
 8000a40:	4838      	ldr	r0, [pc, #224]	; (8000b24 <Execute_Page1_Element1+0x224>)
 8000a42:	f000 fe5b 	bl	80016fc <ssd1306_WriteString>
	ssd1306_SetCursor(75, 35);
 8000a46:	2123      	movs	r1, #35	; 0x23
 8000a48:	204b      	movs	r0, #75	; 0x4b
 8000a4a:	f000 fe6b 	bl	8001724 <ssd1306_SetCursor>
	ssd1306_WriteString("125", Font_7x10, White);
 8000a4e:	6862      	ldr	r2, [r4, #4]
 8000a50:	2301      	movs	r3, #1
 8000a52:	6821      	ldr	r1, [r4, #0]
 8000a54:	4834      	ldr	r0, [pc, #208]	; (8000b28 <Execute_Page1_Element1+0x228>)
 8000a56:	f000 fe51 	bl	80016fc <ssd1306_WriteString>

	ssd1306_SetCursor(0, 50);
 8000a5a:	2132      	movs	r1, #50	; 0x32
 8000a5c:	2000      	movs	r0, #0
 8000a5e:	f000 fe61 	bl	8001724 <ssd1306_SetCursor>
	ssd1306_WriteString(STR_Auto, Font_7x10, White);
 8000a62:	6821      	ldr	r1, [r4, #0]
 8000a64:	6862      	ldr	r2, [r4, #4]
 8000a66:	2301      	movs	r3, #1
 8000a68:	4830      	ldr	r0, [pc, #192]	; (8000b2c <Execute_Page1_Element1+0x22c>)
 8000a6a:	f000 fe47 	bl	80016fc <ssd1306_WriteString>
	ssd1306_WriteString(STR_Space, Font_7x10, White);
 8000a6e:	6821      	ldr	r1, [r4, #0]
 8000a70:	6862      	ldr	r2, [r4, #4]
 8000a72:	2301      	movs	r3, #1
 8000a74:	482e      	ldr	r0, [pc, #184]	; (8000b30 <Execute_Page1_Element1+0x230>)
 8000a76:	f000 fe41 	bl	80016fc <ssd1306_WriteString>
	ssd1306_WriteString(STR_Auto_Value, Font_7x10, White);
 8000a7a:	482e      	ldr	r0, [pc, #184]	; (8000b34 <Execute_Page1_Element1+0x234>)
 8000a7c:	2301      	movs	r3, #1
 8000a7e:	6821      	ldr	r1, [r4, #0]
 8000a80:	6862      	ldr	r2, [r4, #4]
 8000a82:	6800      	ldr	r0, [r0, #0]
 8000a84:	f000 fe3a 	bl	80016fc <ssd1306_WriteString>

	ssd1306_SetCursor(100, 50);
 8000a88:	2132      	movs	r1, #50	; 0x32
 8000a8a:	2064      	movs	r0, #100	; 0x64
 8000a8c:	f000 fe4a 	bl	8001724 <ssd1306_SetCursor>
	ssd1306_WriteString(">>", Font_7x10, White);
 8000a90:	cc06      	ldmia	r4!, {r1, r2}
 8000a92:	2301      	movs	r3, #1
 8000a94:	4828      	ldr	r0, [pc, #160]	; (8000b38 <Execute_Page1_Element1+0x238>)
 8000a96:	f000 fe31 	bl	80016fc <ssd1306_WriteString>

	ssd1306_UpdateScreen();
 8000a9a:	f000 fd35 	bl	8001508 <ssd1306_UpdateScreen>

	}
    }
 8000a9e:	b005      	add	sp, #20
 8000aa0:	bdf0      	pop	{r4, r5, r6, r7, pc}
		ssd1306_Fill(Black);
 8000aa2:	f000 fd23 	bl	80014ec <ssd1306_Fill>
		ssd1306_SetCursor(0, 0);
 8000aa6:	0039      	movs	r1, r7
 8000aa8:	0038      	movs	r0, r7
 8000aaa:	f000 fe3b 	bl	8001724 <ssd1306_SetCursor>
		ssd1306_WriteString("Battery Low", Font_7x10, White);
 8000aae:	4d1a      	ldr	r5, [pc, #104]	; (8000b18 <Execute_Page1_Element1+0x218>)
 8000ab0:	2301      	movs	r3, #1
 8000ab2:	686a      	ldr	r2, [r5, #4]
 8000ab4:	6829      	ldr	r1, [r5, #0]
 8000ab6:	4821      	ldr	r0, [pc, #132]	; (8000b3c <Execute_Page1_Element1+0x23c>)
 8000ab8:	f000 fe20 	bl	80016fc <ssd1306_WriteString>
		ssd1306_SetCursor(0, 15);
 8000abc:	210f      	movs	r1, #15
 8000abe:	0038      	movs	r0, r7
 8000ac0:	f000 fe30 	bl	8001724 <ssd1306_SetCursor>
		ssd1306_WriteString("Under Voltage", Font_7x10, White);
 8000ac4:	686a      	ldr	r2, [r5, #4]
 8000ac6:	2301      	movs	r3, #1
 8000ac8:	6829      	ldr	r1, [r5, #0]
 8000aca:	481d      	ldr	r0, [pc, #116]	; (8000b40 <Execute_Page1_Element1+0x240>)
 8000acc:	f000 fe16 	bl	80016fc <ssd1306_WriteString>
		ssd1306_SetCursor(0, 30);
 8000ad0:	211e      	movs	r1, #30
 8000ad2:	0038      	movs	r0, r7
 8000ad4:	f000 fe26 	bl	8001724 <ssd1306_SetCursor>
		ssd1306_WriteString("Lock Out", Font_7x10, White);
 8000ad8:	2301      	movs	r3, #1
 8000ada:	6829      	ldr	r1, [r5, #0]
 8000adc:	686a      	ldr	r2, [r5, #4]
 8000ade:	4819      	ldr	r0, [pc, #100]	; (8000b44 <Execute_Page1_Element1+0x244>)
 8000ae0:	f000 fe0c 	bl	80016fc <ssd1306_WriteString>
		ssd1306_SetCursor(0, 45);
 8000ae4:	212d      	movs	r1, #45	; 0x2d
 8000ae6:	0038      	movs	r0, r7
 8000ae8:	f000 fe1c 	bl	8001724 <ssd1306_SetCursor>
		ssd1306_WriteString("Reboot Welder", Font_7x10, White);
 8000aec:	cd06      	ldmia	r5!, {r1, r2}
 8000aee:	2301      	movs	r3, #1
 8000af0:	4815      	ldr	r0, [pc, #84]	; (8000b48 <Execute_Page1_Element1+0x248>)
 8000af2:	f000 fe03 	bl	80016fc <ssd1306_WriteString>
		ssd1306_UpdateScreen();
 8000af6:	f000 fd07 	bl	8001508 <ssd1306_UpdateScreen>
		HAL_Delay(2000);
 8000afa:	20fa      	movs	r0, #250	; 0xfa
 8000afc:	00c0      	lsls	r0, r0, #3
 8000afe:	e75e      	b.n	80009be <Execute_Page1_Element1+0xbe>
 8000b00:	20000524 	.word	0x20000524
 8000b04:	20000478 	.word	0x20000478
 8000b08:	20000068 	.word	0x20000068
 8000b0c:	20000000 	.word	0x20000000
 8000b10:	08003a42 	.word	0x08003a42
 8000b14:	08003a49 	.word	0x08003a49
 8000b18:	20000008 	.word	0x20000008
 8000b1c:	08003a7d 	.word	0x08003a7d
 8000b20:	08003a99 	.word	0x08003a99
 8000b24:	08003a86 	.word	0x08003a86
 8000b28:	08003a91 	.word	0x08003a91
 8000b2c:	080039f0 	.word	0x080039f0
 8000b30:	08003a40 	.word	0x08003a40
 8000b34:	20000014 	.word	0x20000014
 8000b38:	08003a95 	.word	0x08003a95
 8000b3c:	08003a4c 	.word	0x08003a4c
 8000b40:	08003a58 	.word	0x08003a58
 8000b44:	08003a66 	.word	0x08003a66
 8000b48:	08003a6f 	.word	0x08003a6f

08000b4c <Execute_Page1_Element3>:
    In_Loop = 0;
    Change_Page(2);
    }

void Execute_Page1_Element3(uint8_t button, int16_t count)
    {
 8000b4c:	b530      	push	{r4, r5, lr}

    char temp[10];

    if (In_Loop)
 8000b4e:	4b1c      	ldr	r3, [pc, #112]	; (8000bc0 <Execute_Page1_Element3+0x74>)
    {
 8000b50:	b085      	sub	sp, #20
    if (In_Loop)
 8000b52:	781a      	ldrb	r2, [r3, #0]
    {
 8000b54:	000c      	movs	r4, r1
    if (In_Loop)
 8000b56:	2a00      	cmp	r2, #0
 8000b58:	d030      	beq.n	8000bbc <Execute_Page1_Element3+0x70>
	{

	if (button == 1)
 8000b5a:	2801      	cmp	r0, #1
 8000b5c:	d101      	bne.n	8000b62 <Execute_Page1_Element3+0x16>
	    {
	    In_Loop = 0;
 8000b5e:	2200      	movs	r2, #0
 8000b60:	701a      	strb	r2, [r3, #0]
	    }

	Set_Batt_Alarm(Get_Batt_Alarm() + (count * 10));
 8000b62:	250a      	movs	r5, #10
 8000b64:	f000 fc3a 	bl	80013dc <Get_Batt_Alarm>
 8000b68:	436c      	muls	r4, r5
 8000b6a:	1900      	adds	r0, r0, r4
 8000b6c:	b200      	sxth	r0, r0
 8000b6e:	f000 fc21 	bl	80013b4 <Set_Batt_Alarm>

	ssd1306_Fill(Black);
 8000b72:	2000      	movs	r0, #0
 8000b74:	f000 fcba 	bl	80014ec <ssd1306_Fill>
	ssd1306_SetCursor(0, 0);
 8000b78:	2100      	movs	r1, #0
 8000b7a:	0008      	movs	r0, r1
 8000b7c:	f000 fdd2 	bl	8001724 <ssd1306_SetCursor>
	ssd1306_WriteString(STR_Batt_Alarm, Font_11x18, White);
 8000b80:	4c10      	ldr	r4, [pc, #64]	; (8000bc4 <Execute_Page1_Element3+0x78>)
 8000b82:	2301      	movs	r3, #1
 8000b84:	6862      	ldr	r2, [r4, #4]
 8000b86:	6821      	ldr	r1, [r4, #0]
 8000b88:	480f      	ldr	r0, [pc, #60]	; (8000bc8 <Execute_Page1_Element3+0x7c>)
 8000b8a:	f000 fdb7 	bl	80016fc <ssd1306_WriteString>

	ssd1306_SetCursor(0, 20);
 8000b8e:	2114      	movs	r1, #20
 8000b90:	2000      	movs	r0, #0
 8000b92:	f000 fdc7 	bl	8001724 <ssd1306_SetCursor>
	itoa(Get_Batt_Alarm(), temp, 10);
 8000b96:	f000 fc21 	bl	80013dc <Get_Batt_Alarm>
 8000b9a:	002a      	movs	r2, r5
 8000b9c:	a901      	add	r1, sp, #4
 8000b9e:	f001 fc5f 	bl	8002460 <itoa>
	ssd1306_WriteString(temp, Font_11x18, White);
 8000ba2:	2301      	movs	r3, #1
 8000ba4:	6821      	ldr	r1, [r4, #0]
 8000ba6:	6862      	ldr	r2, [r4, #4]
 8000ba8:	a801      	add	r0, sp, #4
 8000baa:	f000 fda7 	bl	80016fc <ssd1306_WriteString>
	ssd1306_WriteString(" mV", Font_11x18, White);
 8000bae:	cc06      	ldmia	r4!, {r1, r2}
 8000bb0:	2301      	movs	r3, #1
 8000bb2:	4806      	ldr	r0, [pc, #24]	; (8000bcc <Execute_Page1_Element3+0x80>)
 8000bb4:	f000 fda2 	bl	80016fc <ssd1306_WriteString>
	ssd1306_UpdateScreen();
 8000bb8:	f000 fca6 	bl	8001508 <ssd1306_UpdateScreen>

	}

    }
 8000bbc:	b005      	add	sp, #20
 8000bbe:	bd30      	pop	{r4, r5, pc}
 8000bc0:	20000524 	.word	0x20000524
 8000bc4:	20000000 	.word	0x20000000
 8000bc8:	08003a12 	.word	0x08003a12
 8000bcc:	08003a98 	.word	0x08003a98

08000bd0 <Execute_Page1_Element4>:


void Execute_Page1_Element4(uint8_t button, int16_t count)
    {
 8000bd0:	b530      	push	{r4, r5, lr}
 8000bd2:	b085      	sub	sp, #20
 8000bd4:	0004      	movs	r4, r0
 8000bd6:	000d      	movs	r5, r1

    char temp[10];



    Set_Short_Pulse_Duration(Get_Short_Pulse_Duration() + (count));
 8000bd8:	f000 fbe6 	bl	80013a8 <Get_Short_Pulse_Duration>
 8000bdc:	1940      	adds	r0, r0, r5
 8000bde:	b200      	sxth	r0, r0
 8000be0:	f000 fbd4 	bl	800138c <Set_Short_Pulse_Duration>

    if (button == 1)
 8000be4:	2c01      	cmp	r4, #1
 8000be6:	d102      	bne.n	8000bee <Execute_Page1_Element4+0x1e>
	{
	In_Loop = 0; //exit loop
 8000be8:	2200      	movs	r2, #0
 8000bea:	4b14      	ldr	r3, [pc, #80]	; (8000c3c <Execute_Page1_Element4+0x6c>)
 8000bec:	701a      	strb	r2, [r3, #0]
	}

    ssd1306_Fill(Black);
 8000bee:	2000      	movs	r0, #0
 8000bf0:	f000 fc7c 	bl	80014ec <ssd1306_Fill>
    ssd1306_SetCursor(0, 0);
 8000bf4:	2100      	movs	r1, #0
 8000bf6:	0008      	movs	r0, r1
 8000bf8:	f000 fd94 	bl	8001724 <ssd1306_SetCursor>
    ssd1306_WriteString(STR_Shrt_Pulse, Font_11x18, White);
 8000bfc:	4c10      	ldr	r4, [pc, #64]	; (8000c40 <Execute_Page1_Element4+0x70>)
 8000bfe:	2301      	movs	r3, #1
 8000c00:	6862      	ldr	r2, [r4, #4]
 8000c02:	6821      	ldr	r1, [r4, #0]
 8000c04:	480f      	ldr	r0, [pc, #60]	; (8000c44 <Execute_Page1_Element4+0x74>)
 8000c06:	f000 fd79 	bl	80016fc <ssd1306_WriteString>

    ssd1306_SetCursor(0, 20);
 8000c0a:	2114      	movs	r1, #20
 8000c0c:	2000      	movs	r0, #0
 8000c0e:	f000 fd89 	bl	8001724 <ssd1306_SetCursor>
    itoa(Get_Short_Pulse_Duration(), temp, 10);
 8000c12:	f000 fbc9 	bl	80013a8 <Get_Short_Pulse_Duration>
 8000c16:	a901      	add	r1, sp, #4
 8000c18:	220a      	movs	r2, #10
 8000c1a:	f001 fc21 	bl	8002460 <itoa>
    ssd1306_WriteString(temp, Font_11x18, White);
 8000c1e:	2301      	movs	r3, #1
 8000c20:	6821      	ldr	r1, [r4, #0]
 8000c22:	6862      	ldr	r2, [r4, #4]
 8000c24:	a801      	add	r0, sp, #4
 8000c26:	f000 fd69 	bl	80016fc <ssd1306_WriteString>
    ssd1306_WriteString(" ms ", Font_11x18, White);
 8000c2a:	cc06      	ldmia	r4!, {r1, r2}
 8000c2c:	2301      	movs	r3, #1
 8000c2e:	4806      	ldr	r0, [pc, #24]	; (8000c48 <Execute_Page1_Element4+0x78>)
 8000c30:	f000 fd64 	bl	80016fc <ssd1306_WriteString>
    ssd1306_UpdateScreen();
 8000c34:	f000 fc68 	bl	8001508 <ssd1306_UpdateScreen>

    }
 8000c38:	b005      	add	sp, #20
 8000c3a:	bd30      	pop	{r4, r5, pc}
 8000c3c:	20000524 	.word	0x20000524
 8000c40:	20000000 	.word	0x20000000
 8000c44:	08003a35 	.word	0x08003a35
 8000c48:	08003a9c 	.word	0x08003a9c

08000c4c <Execute_Page1_Element>:

void Execute_Page1_Element(uint8_t screen, uint8_t button, int16_t count)
    {
    switch (screen)
 8000c4c:	3801      	subs	r0, #1
    {
 8000c4e:	000b      	movs	r3, r1
 8000c50:	b510      	push	{r4, lr}
 8000c52:	0011      	movs	r1, r2
    switch (screen)
 8000c54:	2803      	cmp	r0, #3
 8000c56:	d806      	bhi.n	8000c66 <Execute_Page1_Element+0x1a>
 8000c58:	f7ff fa56 	bl	8000108 <__gnu_thumb1_case_uqi>
 8000c5c:	110d0602 	.word	0x110d0602
	{
    case 1:
	Execute_Page1_Element1(button, count);
 8000c60:	0018      	movs	r0, r3
 8000c62:	f7ff fe4d 	bl	8000900 <Execute_Page1_Element1>
	break;
    case 4:
	Execute_Page1_Element4(button, count);
	break;
	}
    }
 8000c66:	bd10      	pop	{r4, pc}
    In_Loop = 0;
 8000c68:	2200      	movs	r2, #0
 8000c6a:	4b07      	ldr	r3, [pc, #28]	; (8000c88 <Execute_Page1_Element+0x3c>)
    Change_Page(2);
 8000c6c:	2002      	movs	r0, #2
    In_Loop = 0;
 8000c6e:	701a      	strb	r2, [r3, #0]
    Change_Page(2);
 8000c70:	f7ff fc90 	bl	8000594 <Change_Page>
 8000c74:	e7f7      	b.n	8000c66 <Execute_Page1_Element+0x1a>
	Execute_Page1_Element3(button, count);
 8000c76:	0018      	movs	r0, r3
 8000c78:	f7ff ff68 	bl	8000b4c <Execute_Page1_Element3>
	break;
 8000c7c:	e7f3      	b.n	8000c66 <Execute_Page1_Element+0x1a>
	Execute_Page1_Element4(button, count);
 8000c7e:	0018      	movs	r0, r3
 8000c80:	f7ff ffa6 	bl	8000bd0 <Execute_Page1_Element4>
    }
 8000c84:	e7ef      	b.n	8000c66 <Execute_Page1_Element+0x1a>
 8000c86:	46c0      	nop			; (mov r8, r8)
 8000c88:	20000524 	.word	0x20000524

08000c8c <Show_Page2_Comman>:
 */

#include "menu_main.h"

void Show_Page2_Comman()
    {
 8000c8c:	b51f      	push	{r0, r1, r2, r3, r4, lr}

    char temp[10];

    ssd1306_Fill(Black);
 8000c8e:	2000      	movs	r0, #0
 8000c90:	f000 fc2c 	bl	80014ec <ssd1306_Fill>

    ssd1306_SetCursor(0, 5);
 8000c94:	2105      	movs	r1, #5
 8000c96:	2000      	movs	r0, #0
 8000c98:	f000 fd44 	bl	8001724 <ssd1306_SetCursor>
    ssd1306_WriteString(STR_Back, Font_7x10, White);
 8000c9c:	4c28      	ldr	r4, [pc, #160]	; (8000d40 <Show_Page2_Comman+0xb4>)
 8000c9e:	2301      	movs	r3, #1
 8000ca0:	6862      	ldr	r2, [r4, #4]
 8000ca2:	6821      	ldr	r1, [r4, #0]
 8000ca4:	4827      	ldr	r0, [pc, #156]	; (8000d44 <Show_Page2_Comman+0xb8>)
 8000ca6:	f000 fd29 	bl	80016fc <ssd1306_WriteString>

    ssd1306_SetCursor(0, 20);
 8000caa:	2114      	movs	r1, #20
 8000cac:	2000      	movs	r0, #0
 8000cae:	f000 fd39 	bl	8001724 <ssd1306_SetCursor>
    ssd1306_WriteString(STR_Auto_Pulse_C, Font_7x10, White);
 8000cb2:	6862      	ldr	r2, [r4, #4]
 8000cb4:	2301      	movs	r3, #1
 8000cb6:	6821      	ldr	r1, [r4, #0]
 8000cb8:	4823      	ldr	r0, [pc, #140]	; (8000d48 <Show_Page2_Comman+0xbc>)
 8000cba:	f000 fd1f 	bl	80016fc <ssd1306_WriteString>
    ssd1306_SetCursor(80, 20);
 8000cbe:	2114      	movs	r1, #20
 8000cc0:	2050      	movs	r0, #80	; 0x50
 8000cc2:	f000 fd2f 	bl	8001724 <ssd1306_SetCursor>
    ssd1306_WriteString(STR_Auto_Value, Font_7x10, White);
 8000cc6:	4821      	ldr	r0, [pc, #132]	; (8000d4c <Show_Page2_Comman+0xc0>)
 8000cc8:	6862      	ldr	r2, [r4, #4]
 8000cca:	2301      	movs	r3, #1
 8000ccc:	6821      	ldr	r1, [r4, #0]
 8000cce:	6800      	ldr	r0, [r0, #0]
 8000cd0:	f000 fd14 	bl	80016fc <ssd1306_WriteString>

    ssd1306_SetCursor(0, 35);
 8000cd4:	2123      	movs	r1, #35	; 0x23
 8000cd6:	2000      	movs	r0, #0
 8000cd8:	f000 fd24 	bl	8001724 <ssd1306_SetCursor>
    ssd1306_WriteString(STR_Delay, Font_7x10, White);
 8000cdc:	2301      	movs	r3, #1
 8000cde:	6862      	ldr	r2, [r4, #4]
 8000ce0:	6821      	ldr	r1, [r4, #0]
 8000ce2:	481b      	ldr	r0, [pc, #108]	; (8000d50 <Show_Page2_Comman+0xc4>)
 8000ce4:	f000 fd0a 	bl	80016fc <ssd1306_WriteString>
    ssd1306_SetCursor(80, 35);
 8000ce8:	2123      	movs	r1, #35	; 0x23
 8000cea:	2050      	movs	r0, #80	; 0x50
 8000cec:	f000 fd1a 	bl	8001724 <ssd1306_SetCursor>
    itoa(Get_Auto_Pulse_Delay(), temp, 10);
 8000cf0:	f000 fb32 	bl	8001358 <Get_Auto_Pulse_Delay>
 8000cf4:	a901      	add	r1, sp, #4
 8000cf6:	220a      	movs	r2, #10
 8000cf8:	f001 fbb2 	bl	8002460 <itoa>
    ssd1306_WriteString(temp, Font_7x10, White);
 8000cfc:	6862      	ldr	r2, [r4, #4]
 8000cfe:	2301      	movs	r3, #1
 8000d00:	6821      	ldr	r1, [r4, #0]
 8000d02:	a801      	add	r0, sp, #4
 8000d04:	f000 fcfa 	bl	80016fc <ssd1306_WriteString>

    ssd1306_SetCursor(0, 50);
 8000d08:	2132      	movs	r1, #50	; 0x32
 8000d0a:	2000      	movs	r0, #0
 8000d0c:	f000 fd0a 	bl	8001724 <ssd1306_SetCursor>
    ssd1306_WriteString(STR_Duration, Font_7x10, White);
 8000d10:	2301      	movs	r3, #1
 8000d12:	6862      	ldr	r2, [r4, #4]
 8000d14:	6821      	ldr	r1, [r4, #0]
 8000d16:	480f      	ldr	r0, [pc, #60]	; (8000d54 <Show_Page2_Comman+0xc8>)
 8000d18:	f000 fcf0 	bl	80016fc <ssd1306_WriteString>
    ssd1306_SetCursor(80, 50);
 8000d1c:	2132      	movs	r1, #50	; 0x32
 8000d1e:	2050      	movs	r0, #80	; 0x50
 8000d20:	f000 fd00 	bl	8001724 <ssd1306_SetCursor>
    itoa(Get_Main_Pulse_Duration(), temp, 10);
 8000d24:	f000 fb2c 	bl	8001380 <Get_Main_Pulse_Duration>
 8000d28:	a901      	add	r1, sp, #4
 8000d2a:	220a      	movs	r2, #10
 8000d2c:	f001 fb98 	bl	8002460 <itoa>
    ssd1306_WriteString(temp, Font_7x10, White);
 8000d30:	cc06      	ldmia	r4!, {r1, r2}
 8000d32:	2301      	movs	r3, #1
 8000d34:	a801      	add	r0, sp, #4
 8000d36:	f000 fce1 	bl	80016fc <ssd1306_WriteString>

    ssd1306_UpdateScreen();
 8000d3a:	f000 fbe5 	bl	8001508 <ssd1306_UpdateScreen>
    }
 8000d3e:	bd1f      	pop	{r0, r1, r2, r3, r4, pc}
 8000d40:	20000008 	.word	0x20000008
 8000d44:	08003a0d 	.word	0x08003a0d
 8000d48:	08003a01 	.word	0x08003a01
 8000d4c:	20000014 	.word	0x20000014
 8000d50:	08003a1d 	.word	0x08003a1d
 8000d54:	08003a24 	.word	0x08003a24

08000d58 <Show_Page2_Screen1>:

void Show_Page2_Screen1()
    {
 8000d58:	b510      	push	{r4, lr}

    ssd1306_SetCursor(0, 5);
 8000d5a:	2105      	movs	r1, #5
 8000d5c:	2000      	movs	r0, #0
 8000d5e:	f000 fce1 	bl	8001724 <ssd1306_SetCursor>
    ssd1306_WriteString(STR_Back, Font_7x10, Black);
 8000d62:	4a05      	ldr	r2, [pc, #20]	; (8000d78 <Show_Page2_Screen1+0x20>)
 8000d64:	2300      	movs	r3, #0
 8000d66:	6811      	ldr	r1, [r2, #0]
 8000d68:	4804      	ldr	r0, [pc, #16]	; (8000d7c <Show_Page2_Screen1+0x24>)
 8000d6a:	6852      	ldr	r2, [r2, #4]
 8000d6c:	f000 fcc6 	bl	80016fc <ssd1306_WriteString>

    ssd1306_UpdateScreen();
 8000d70:	f000 fbca 	bl	8001508 <ssd1306_UpdateScreen>
    }
 8000d74:	bd10      	pop	{r4, pc}
 8000d76:	46c0      	nop			; (mov r8, r8)
 8000d78:	20000008 	.word	0x20000008
 8000d7c:	08003a0d 	.word	0x08003a0d

08000d80 <Show_Page2_Screen2>:

void Show_Page2_Screen2()
    {
 8000d80:	b510      	push	{r4, lr}

    ssd1306_SetCursor(0, 20);
 8000d82:	2114      	movs	r1, #20
 8000d84:	2000      	movs	r0, #0
 8000d86:	f000 fccd 	bl	8001724 <ssd1306_SetCursor>
    ssd1306_WriteString(STR_Auto_Pulse_C, Font_7x10, Black);
 8000d8a:	4c0a      	ldr	r4, [pc, #40]	; (8000db4 <Show_Page2_Screen2+0x34>)
 8000d8c:	2300      	movs	r3, #0
 8000d8e:	6821      	ldr	r1, [r4, #0]
 8000d90:	6862      	ldr	r2, [r4, #4]
 8000d92:	4809      	ldr	r0, [pc, #36]	; (8000db8 <Show_Page2_Screen2+0x38>)
 8000d94:	f000 fcb2 	bl	80016fc <ssd1306_WriteString>
    ssd1306_SetCursor(80, 20);
 8000d98:	2114      	movs	r1, #20
 8000d9a:	2050      	movs	r0, #80	; 0x50
 8000d9c:	f000 fcc2 	bl	8001724 <ssd1306_SetCursor>
    ssd1306_WriteString(STR_Auto_Value, Font_7x10, Black);
 8000da0:	cc06      	ldmia	r4!, {r1, r2}
 8000da2:	4806      	ldr	r0, [pc, #24]	; (8000dbc <Show_Page2_Screen2+0x3c>)
 8000da4:	2300      	movs	r3, #0
 8000da6:	6800      	ldr	r0, [r0, #0]
 8000da8:	f000 fca8 	bl	80016fc <ssd1306_WriteString>

    ssd1306_UpdateScreen();
 8000dac:	f000 fbac 	bl	8001508 <ssd1306_UpdateScreen>
    }
 8000db0:	bd10      	pop	{r4, pc}
 8000db2:	46c0      	nop			; (mov r8, r8)
 8000db4:	20000008 	.word	0x20000008
 8000db8:	08003a01 	.word	0x08003a01
 8000dbc:	20000014 	.word	0x20000014

08000dc0 <Show_Page2_Screen3>:

void Show_Page2_Screen3()
    {
 8000dc0:	b51f      	push	{r0, r1, r2, r3, r4, lr}

    char temp[10];
    itoa(Get_Auto_Pulse_Delay(), temp, 10);
 8000dc2:	f000 fac9 	bl	8001358 <Get_Auto_Pulse_Delay>
 8000dc6:	220a      	movs	r2, #10
 8000dc8:	a901      	add	r1, sp, #4
 8000dca:	f001 fb49 	bl	8002460 <itoa>

    ssd1306_SetCursor(0, 35);
 8000dce:	2123      	movs	r1, #35	; 0x23
 8000dd0:	2000      	movs	r0, #0
 8000dd2:	f000 fca7 	bl	8001724 <ssd1306_SetCursor>
    ssd1306_WriteString(STR_Delay, Font_7x10, Black);
 8000dd6:	4c09      	ldr	r4, [pc, #36]	; (8000dfc <Show_Page2_Screen3+0x3c>)
 8000dd8:	2300      	movs	r3, #0
 8000dda:	6821      	ldr	r1, [r4, #0]
 8000ddc:	6862      	ldr	r2, [r4, #4]
 8000dde:	4808      	ldr	r0, [pc, #32]	; (8000e00 <Show_Page2_Screen3+0x40>)
 8000de0:	f000 fc8c 	bl	80016fc <ssd1306_WriteString>
    ssd1306_SetCursor(80, 35);
 8000de4:	2123      	movs	r1, #35	; 0x23
 8000de6:	2050      	movs	r0, #80	; 0x50
 8000de8:	f000 fc9c 	bl	8001724 <ssd1306_SetCursor>
    ssd1306_WriteString(temp, Font_7x10, Black);
 8000dec:	cc06      	ldmia	r4!, {r1, r2}
 8000dee:	2300      	movs	r3, #0
 8000df0:	a801      	add	r0, sp, #4
 8000df2:	f000 fc83 	bl	80016fc <ssd1306_WriteString>

    ssd1306_UpdateScreen();
 8000df6:	f000 fb87 	bl	8001508 <ssd1306_UpdateScreen>

    }
 8000dfa:	bd1f      	pop	{r0, r1, r2, r3, r4, pc}
 8000dfc:	20000008 	.word	0x20000008
 8000e00:	08003a1d 	.word	0x08003a1d

08000e04 <Show_Page2_Screen4>:

void Show_Page2_Screen4()
    {
 8000e04:	b51f      	push	{r0, r1, r2, r3, r4, lr}

    char temp[10];
    itoa(Get_Main_Pulse_Duration(), temp, 10);
 8000e06:	f000 fabb 	bl	8001380 <Get_Main_Pulse_Duration>
 8000e0a:	220a      	movs	r2, #10
 8000e0c:	a901      	add	r1, sp, #4
 8000e0e:	f001 fb27 	bl	8002460 <itoa>

    ssd1306_SetCursor(0, 50);
 8000e12:	2132      	movs	r1, #50	; 0x32
 8000e14:	2000      	movs	r0, #0
 8000e16:	f000 fc85 	bl	8001724 <ssd1306_SetCursor>
    ssd1306_WriteString(STR_Duration, Font_7x10, Black);
 8000e1a:	4c09      	ldr	r4, [pc, #36]	; (8000e40 <Show_Page2_Screen4+0x3c>)
 8000e1c:	2300      	movs	r3, #0
 8000e1e:	6821      	ldr	r1, [r4, #0]
 8000e20:	6862      	ldr	r2, [r4, #4]
 8000e22:	4808      	ldr	r0, [pc, #32]	; (8000e44 <Show_Page2_Screen4+0x40>)
 8000e24:	f000 fc6a 	bl	80016fc <ssd1306_WriteString>
    ssd1306_SetCursor(80, 50);
 8000e28:	2132      	movs	r1, #50	; 0x32
 8000e2a:	2050      	movs	r0, #80	; 0x50
 8000e2c:	f000 fc7a 	bl	8001724 <ssd1306_SetCursor>
    ssd1306_WriteString(temp, Font_7x10, Black);
 8000e30:	cc06      	ldmia	r4!, {r1, r2}
 8000e32:	2300      	movs	r3, #0
 8000e34:	a801      	add	r0, sp, #4
 8000e36:	f000 fc61 	bl	80016fc <ssd1306_WriteString>

    ssd1306_UpdateScreen();
 8000e3a:	f000 fb65 	bl	8001508 <ssd1306_UpdateScreen>
    }
 8000e3e:	bd1f      	pop	{r0, r1, r2, r3, r4, pc}
 8000e40:	20000008 	.word	0x20000008
 8000e44:	08003a24 	.word	0x08003a24

08000e48 <Show_Page2>:

void Show_Page2(uint8_t screen)
    {

    switch (screen)
 8000e48:	3801      	subs	r0, #1
    {
 8000e4a:	b510      	push	{r4, lr}
    switch (screen)
 8000e4c:	2803      	cmp	r0, #3
 8000e4e:	d807      	bhi.n	8000e60 <Show_Page2+0x18>
 8000e50:	f7ff f95a 	bl	8000108 <__gnu_thumb1_case_uqi>
 8000e54:	110c0702 	.word	0x110c0702
	{
    break;
case 1:
    Show_Page2_Comman();
 8000e58:	f7ff ff18 	bl	8000c8c <Show_Page2_Comman>
    Show_Page2_Screen1();
 8000e5c:	f7ff ff7c 	bl	8000d58 <Show_Page2_Screen1>
case 4:
    Show_Page2_Comman();
    Show_Page2_Screen4();
    break;
    }
}
 8000e60:	bd10      	pop	{r4, pc}
    Show_Page2_Comman();
 8000e62:	f7ff ff13 	bl	8000c8c <Show_Page2_Comman>
    Show_Page2_Screen2();
 8000e66:	f7ff ff8b 	bl	8000d80 <Show_Page2_Screen2>
    break;
 8000e6a:	e7f9      	b.n	8000e60 <Show_Page2+0x18>
    Show_Page2_Comman();
 8000e6c:	f7ff ff0e 	bl	8000c8c <Show_Page2_Comman>
    Show_Page2_Screen3();
 8000e70:	f7ff ffa6 	bl	8000dc0 <Show_Page2_Screen3>
    break;
 8000e74:	e7f4      	b.n	8000e60 <Show_Page2+0x18>
    Show_Page2_Comman();
 8000e76:	f7ff ff09 	bl	8000c8c <Show_Page2_Comman>
    Show_Page2_Screen4();
 8000e7a:	f7ff ffc3 	bl	8000e04 <Show_Page2_Screen4>
}
 8000e7e:	e7ef      	b.n	8000e60 <Show_Page2+0x18>

08000e80 <Execute_Page2_Element2>:
void Execute_Page2_Element2(uint8_t button, int16_t count)
{

static uint8_t toggle = 0;

In_Loop = 0;
 8000e80:	2200      	movs	r2, #0
{
 8000e82:	b510      	push	{r4, lr}
In_Loop = 0;
 8000e84:	4b0b      	ldr	r3, [pc, #44]	; (8000eb4 <Execute_Page2_Element2+0x34>)
 8000e86:	4c0c      	ldr	r4, [pc, #48]	; (8000eb8 <Execute_Page2_Element2+0x38>)
 8000e88:	701a      	strb	r2, [r3, #0]

if (toggle)
 8000e8a:	4b0c      	ldr	r3, [pc, #48]	; (8000ebc <Execute_Page2_Element2+0x3c>)
 8000e8c:	7819      	ldrb	r1, [r3, #0]
 8000e8e:	4291      	cmp	r1, r2
 8000e90:	d009      	beq.n	8000ea6 <Execute_Page2_Element2+0x26>
    {
    toggle = 0;
 8000e92:	701a      	strb	r2, [r3, #0]
    Disble_Auto_Welder();
 8000e94:	f000 faae 	bl	80013f4 <Disble_Auto_Welder>
    STR_Auto_Value = STR_OFF;
 8000e98:	4b09      	ldr	r3, [pc, #36]	; (8000ec0 <Execute_Page2_Element2+0x40>)
    }
else
    {
    toggle = 1;
    Enable_Auto_Welder();
    STR_Auto_Value = STR_ON;
 8000e9a:	6023      	str	r3, [r4, #0]
    }
Show_Page2_Comman();
 8000e9c:	f7ff fef6 	bl	8000c8c <Show_Page2_Comman>
Show_Page2_Screen2();
 8000ea0:	f7ff ff6e 	bl	8000d80 <Show_Page2_Screen2>

}
 8000ea4:	bd10      	pop	{r4, pc}
    toggle = 1;
 8000ea6:	2201      	movs	r2, #1
 8000ea8:	701a      	strb	r2, [r3, #0]
    Enable_Auto_Welder();
 8000eaa:	f000 faa9 	bl	8001400 <Enable_Auto_Welder>
    STR_Auto_Value = STR_ON;
 8000eae:	4b05      	ldr	r3, [pc, #20]	; (8000ec4 <Execute_Page2_Element2+0x44>)
 8000eb0:	e7f3      	b.n	8000e9a <Execute_Page2_Element2+0x1a>
 8000eb2:	46c0      	nop			; (mov r8, r8)
 8000eb4:	20000524 	.word	0x20000524
 8000eb8:	20000014 	.word	0x20000014
 8000ebc:	2000005d 	.word	0x2000005d
 8000ec0:	08003a2e 	.word	0x08003a2e
 8000ec4:	08003a32 	.word	0x08003a32

08000ec8 <Execute_Page2_Element3>:

void Execute_Page2_Element3(uint8_t button, int16_t count)
{
 8000ec8:	b570      	push	{r4, r5, r6, lr}
 8000eca:	0004      	movs	r4, r0
 8000ecc:	000d      	movs	r5, r1

Set_Auto_Pulse_Delay(count + Get_Auto_Pulse_Delay());
 8000ece:	f000 fa43 	bl	8001358 <Get_Auto_Pulse_Delay>
 8000ed2:	1940      	adds	r0, r0, r5
 8000ed4:	b200      	sxth	r0, r0
 8000ed6:	f000 fa2d 	bl	8001334 <Set_Auto_Pulse_Delay>

if (button == 1)
 8000eda:	2c01      	cmp	r4, #1
 8000edc:	d102      	bne.n	8000ee4 <Execute_Page2_Element3+0x1c>
    {
    In_Loop = 0;
 8000ede:	2200      	movs	r2, #0
 8000ee0:	4b02      	ldr	r3, [pc, #8]	; (8000eec <Execute_Page2_Element3+0x24>)
 8000ee2:	701a      	strb	r2, [r3, #0]
    }

Show_Page2_Screen3();
 8000ee4:	f7ff ff6c 	bl	8000dc0 <Show_Page2_Screen3>

}
 8000ee8:	bd70      	pop	{r4, r5, r6, pc}
 8000eea:	46c0      	nop			; (mov r8, r8)
 8000eec:	20000524 	.word	0x20000524

08000ef0 <Execute_Page2_Element4>:

void Execute_Page2_Element4(uint8_t button, int16_t count)
{
 8000ef0:	b510      	push	{r4, lr}
 8000ef2:	000c      	movs	r4, r1

if (button == 1)
 8000ef4:	2801      	cmp	r0, #1
 8000ef6:	d102      	bne.n	8000efe <Execute_Page2_Element4+0xe>
    {
    In_Loop = 0;
 8000ef8:	2200      	movs	r2, #0
 8000efa:	4b05      	ldr	r3, [pc, #20]	; (8000f10 <Execute_Page2_Element4+0x20>)
 8000efc:	701a      	strb	r2, [r3, #0]
    }

Set_Main_Pulse_Duration(count + Get_Main_Pulse_Duration());
 8000efe:	f000 fa3f 	bl	8001380 <Get_Main_Pulse_Duration>
 8000f02:	1900      	adds	r0, r0, r4
 8000f04:	b200      	sxth	r0, r0
 8000f06:	f000 fa2d 	bl	8001364 <Set_Main_Pulse_Duration>

Show_Page2_Screen4();
 8000f0a:	f7ff ff7b 	bl	8000e04 <Show_Page2_Screen4>

}
 8000f0e:	bd10      	pop	{r4, pc}
 8000f10:	20000524 	.word	0x20000524

08000f14 <Execute_Page2_Element>:

void Execute_Page2_Element(uint8_t screen, uint8_t button, int16_t count)
{

switch (screen)
 8000f14:	3801      	subs	r0, #1
{
 8000f16:	000b      	movs	r3, r1
 8000f18:	b510      	push	{r4, lr}
 8000f1a:	0011      	movs	r1, r2
switch (screen)
 8000f1c:	2803      	cmp	r0, #3
 8000f1e:	d809      	bhi.n	8000f34 <Execute_Page2_Element+0x20>
 8000f20:	f7ff f8f2 	bl	8000108 <__gnu_thumb1_case_uqi>
 8000f24:	110d0902 	.word	0x110d0902
In_Loop = 0;
 8000f28:	2200      	movs	r2, #0
 8000f2a:	4b09      	ldr	r3, [pc, #36]	; (8000f50 <Execute_Page2_Element+0x3c>)
Change_Page(1);
 8000f2c:	2001      	movs	r0, #1
In_Loop = 0;
 8000f2e:	701a      	strb	r2, [r3, #0]
Change_Page(1);
 8000f30:	f7ff fb30 	bl	8000594 <Change_Page>
    break;
case 4:
    Execute_Page2_Element4(button, count);
    break;
    }
}
 8000f34:	bd10      	pop	{r4, pc}
    Execute_Page2_Element2(button, count);
 8000f36:	0018      	movs	r0, r3
 8000f38:	f7ff ffa2 	bl	8000e80 <Execute_Page2_Element2>
    break;
 8000f3c:	e7fa      	b.n	8000f34 <Execute_Page2_Element+0x20>
    Execute_Page2_Element3(button, count);
 8000f3e:	0018      	movs	r0, r3
 8000f40:	f7ff ffc2 	bl	8000ec8 <Execute_Page2_Element3>
    break;
 8000f44:	e7f6      	b.n	8000f34 <Execute_Page2_Element+0x20>
    Execute_Page2_Element4(button, count);
 8000f46:	0018      	movs	r0, r3
 8000f48:	f7ff ffd2 	bl	8000ef0 <Execute_Page2_Element4>
}
 8000f4c:	e7f2      	b.n	8000f34 <Execute_Page2_Element+0x20>
 8000f4e:	46c0      	nop			; (mov r8, r8)
 8000f50:	20000524 	.word	0x20000524

08000f54 <Encoder_Attach>:
static Encoder_Struct_t* Encoder_Struct_PTR_Array[MAX_ENCODERS];

static uint8_t Attached_Encoders = 0;

uint8_t Encoder_Attach(Encoder_Struct_t* Encoder_Struct_PTR)
    {
 8000f54:	b530      	push	{r4, r5, lr}
 8000f56:	0004      	movs	r4, r0
    //init GPIOs as input

    GPIO_InitTypeDef GPIO_InitStruct;

    /* GPIO Ports Clock Enable */
    __HAL_RCC_GPIOC_CLK_ENABLE()
 8000f58:	2080      	movs	r0, #128	; 0x80
 8000f5a:	4b25      	ldr	r3, [pc, #148]	; (8000ff0 <Encoder_Attach+0x9c>)
 8000f5c:	0300      	lsls	r0, r0, #12
 8000f5e:	6959      	ldr	r1, [r3, #20]
    {
 8000f60:	b08b      	sub	sp, #44	; 0x2c
    __HAL_RCC_GPIOC_CLK_ENABLE()
 8000f62:	4301      	orrs	r1, r0
 8000f64:	6159      	str	r1, [r3, #20]
 8000f66:	695a      	ldr	r2, [r3, #20]
    ;
    __HAL_RCC_GPIOB_CLK_ENABLE()
    ;

    GPIO_InitStruct.Pin = Encoder_Struct_PTR->Encoder_Pin_0;
    GPIO_InitStruct.Mode = GPIO_MODE_INPUT;
 8000f68:	2500      	movs	r5, #0
    __HAL_RCC_GPIOC_CLK_ENABLE()
 8000f6a:	4002      	ands	r2, r0
    __HAL_RCC_GPIOD_CLK_ENABLE()
 8000f6c:	2080      	movs	r0, #128	; 0x80
    __HAL_RCC_GPIOC_CLK_ENABLE()
 8000f6e:	9201      	str	r2, [sp, #4]
 8000f70:	9a01      	ldr	r2, [sp, #4]
    __HAL_RCC_GPIOD_CLK_ENABLE()
 8000f72:	6959      	ldr	r1, [r3, #20]
 8000f74:	0340      	lsls	r0, r0, #13
 8000f76:	4301      	orrs	r1, r0
 8000f78:	6159      	str	r1, [r3, #20]
 8000f7a:	695a      	ldr	r2, [r3, #20]
 8000f7c:	4002      	ands	r2, r0
    __HAL_RCC_GPIOA_CLK_ENABLE()
 8000f7e:	2080      	movs	r0, #128	; 0x80
    __HAL_RCC_GPIOD_CLK_ENABLE()
 8000f80:	9202      	str	r2, [sp, #8]
 8000f82:	9a02      	ldr	r2, [sp, #8]
    __HAL_RCC_GPIOA_CLK_ENABLE()
 8000f84:	6959      	ldr	r1, [r3, #20]
 8000f86:	0280      	lsls	r0, r0, #10
 8000f88:	4301      	orrs	r1, r0
 8000f8a:	6159      	str	r1, [r3, #20]
    __HAL_RCC_GPIOB_CLK_ENABLE()
 8000f8c:	2180      	movs	r1, #128	; 0x80
    __HAL_RCC_GPIOA_CLK_ENABLE()
 8000f8e:	695a      	ldr	r2, [r3, #20]
    __HAL_RCC_GPIOB_CLK_ENABLE()
 8000f90:	02c9      	lsls	r1, r1, #11
    __HAL_RCC_GPIOA_CLK_ENABLE()
 8000f92:	4002      	ands	r2, r0
 8000f94:	9203      	str	r2, [sp, #12]
 8000f96:	9a03      	ldr	r2, [sp, #12]
    __HAL_RCC_GPIOB_CLK_ENABLE()
 8000f98:	695a      	ldr	r2, [r3, #20]
    GPIO_InitStruct.Pull = GPIO_PULLUP;
    HAL_GPIO_Init(Encoder_Struct_PTR->Encoder_Pin_0_Port, &GPIO_InitStruct);
 8000f9a:	6860      	ldr	r0, [r4, #4]
    __HAL_RCC_GPIOB_CLK_ENABLE()
 8000f9c:	430a      	orrs	r2, r1
 8000f9e:	615a      	str	r2, [r3, #20]
 8000fa0:	695b      	ldr	r3, [r3, #20]
    GPIO_InitStruct.Mode = GPIO_MODE_INPUT;
 8000fa2:	9506      	str	r5, [sp, #24]
    __HAL_RCC_GPIOB_CLK_ENABLE()
 8000fa4:	400b      	ands	r3, r1
 8000fa6:	9304      	str	r3, [sp, #16]
 8000fa8:	9b04      	ldr	r3, [sp, #16]
    GPIO_InitStruct.Pin = Encoder_Struct_PTR->Encoder_Pin_0;
 8000faa:	8823      	ldrh	r3, [r4, #0]
    HAL_GPIO_Init(Encoder_Struct_PTR->Encoder_Pin_0_Port, &GPIO_InitStruct);
 8000fac:	a905      	add	r1, sp, #20
    GPIO_InitStruct.Pin = Encoder_Struct_PTR->Encoder_Pin_0;
 8000fae:	9305      	str	r3, [sp, #20]
    GPIO_InitStruct.Pull = GPIO_PULLUP;
 8000fb0:	2301      	movs	r3, #1
 8000fb2:	9307      	str	r3, [sp, #28]
    HAL_GPIO_Init(Encoder_Struct_PTR->Encoder_Pin_0_Port, &GPIO_InitStruct);
 8000fb4:	f000 fea4 	bl	8001d00 <HAL_GPIO_Init>

    GPIO_InitStruct.Pin = Encoder_Struct_PTR->Encoder_Pin_1;
 8000fb8:	8863      	ldrh	r3, [r4, #2]
    HAL_GPIO_Init(Encoder_Struct_PTR->Encoder_Pin_1_Port, &GPIO_InitStruct);
 8000fba:	a905      	add	r1, sp, #20
 8000fbc:	68a0      	ldr	r0, [r4, #8]
    GPIO_InitStruct.Pin = Encoder_Struct_PTR->Encoder_Pin_1;
 8000fbe:	9305      	str	r3, [sp, #20]
    HAL_GPIO_Init(Encoder_Struct_PTR->Encoder_Pin_1_Port, &GPIO_InitStruct);
 8000fc0:	f000 fe9e 	bl	8001d00 <HAL_GPIO_Init>

    Encoder_Struct_PTR->Encoder_Time_Stamp = 0;
    Encoder_Struct_PTR->Encoder_Count = 0;

    Encoder_Struct_PTR->Encoder_Pin_0__State = HAL_GPIO_ReadPin(
 8000fc4:	8821      	ldrh	r1, [r4, #0]
    Encoder_Struct_PTR->Encoder_Time_Stamp = 0;
 8000fc6:	6125      	str	r5, [r4, #16]
    Encoder_Struct_PTR->Encoder_Count = 0;
 8000fc8:	82a5      	strh	r5, [r4, #20]
    Encoder_Struct_PTR->Encoder_Pin_0__State = HAL_GPIO_ReadPin(
 8000fca:	6860      	ldr	r0, [r4, #4]
 8000fcc:	f000 ff48 	bl	8001e60 <HAL_GPIO_ReadPin>
	    Encoder_Struct_PTR->Encoder_Pin_0_Port,
	    Encoder_Struct_PTR->Encoder_Pin_0);

    Encoder_Struct_PTR->Encoder_Pin_1__State = HAL_GPIO_ReadPin(
 8000fd0:	8861      	ldrh	r1, [r4, #2]
    Encoder_Struct_PTR->Encoder_Pin_0__State = HAL_GPIO_ReadPin(
 8000fd2:	7320      	strb	r0, [r4, #12]
    Encoder_Struct_PTR->Encoder_Pin_1__State = HAL_GPIO_ReadPin(
 8000fd4:	68a0      	ldr	r0, [r4, #8]
 8000fd6:	f000 ff43 	bl	8001e60 <HAL_GPIO_ReadPin>
	    Encoder_Struct_PTR->Encoder_Pin_1_Port,
	    Encoder_Struct_PTR->Encoder_Pin_1);

    Encoder_Struct_PTR_Array[Attached_Encoders] = Encoder_Struct_PTR;
 8000fda:	4b06      	ldr	r3, [pc, #24]	; (8000ff4 <Encoder_Attach+0xa0>)
    Encoder_Struct_PTR->Encoder_Pin_1__State = HAL_GPIO_ReadPin(
 8000fdc:	7360      	strb	r0, [r4, #13]
    Encoder_Struct_PTR_Array[Attached_Encoders] = Encoder_Struct_PTR;
 8000fde:	7818      	ldrb	r0, [r3, #0]
 8000fe0:	4a05      	ldr	r2, [pc, #20]	; (8000ff8 <Encoder_Attach+0xa4>)
 8000fe2:	0081      	lsls	r1, r0, #2
 8000fe4:	508c      	str	r4, [r1, r2]
    Attached_Encoders++;
 8000fe6:	1c42      	adds	r2, r0, #1
 8000fe8:	701a      	strb	r2, [r3, #0]
    if (Attached_Encoders > MAX_ENCODERS)
	{
	//Error
	}
    return (Attached_Encoders - 1); //return encoder ID
    }
 8000fea:	b00b      	add	sp, #44	; 0x2c
 8000fec:	bd30      	pop	{r4, r5, pc}
 8000fee:	46c0      	nop			; (mov r8, r8)
 8000ff0:	40021000 	.word	0x40021000
 8000ff4:	2000005e 	.word	0x2000005e
 8000ff8:	20000060 	.word	0x20000060

08000ffc <Encoder_Scan>:

/* call in millis callback or systick callback */
void Encoder_Scan()
    {
 8000ffc:	b570      	push	{r4, r5, r6, lr}

    Encoder_Struct_t *PTR = NULL;

    for (uint8_t Index = 0; Index < Attached_Encoders; Index++)
 8000ffe:	2500      	movs	r5, #0
 8001000:	4b2b      	ldr	r3, [pc, #172]	; (80010b0 <Encoder_Scan+0xb4>)
 8001002:	781b      	ldrb	r3, [r3, #0]
 8001004:	42ab      	cmp	r3, r5
 8001006:	d800      	bhi.n	800100a <Encoder_Scan+0xe>
		PTR->Encoder_Time_Stamp = HAL_GetTick();
		}
	    }
	}

    }
 8001008:	bd70      	pop	{r4, r5, r6, pc}
	PTR = Encoder_Struct_PTR_Array[Index];
 800100a:	4b2a      	ldr	r3, [pc, #168]	; (80010b4 <Encoder_Scan+0xb8>)
 800100c:	00aa      	lsls	r2, r5, #2
 800100e:	58d4      	ldr	r4, [r2, r3]
	if (HAL_GPIO_ReadPin(PTR->Encoder_Pin_0_Port, PTR->Encoder_Pin_0)
 8001010:	8821      	ldrh	r1, [r4, #0]
 8001012:	6860      	ldr	r0, [r4, #4]
 8001014:	f000 ff24 	bl	8001e60 <HAL_GPIO_ReadPin>
		!= PTR->Encoder_Pin_0__State)
 8001018:	7b23      	ldrb	r3, [r4, #12]
	if (HAL_GPIO_ReadPin(PTR->Encoder_Pin_0_Port, PTR->Encoder_Pin_0)
 800101a:	4298      	cmp	r0, r3
 800101c:	d013      	beq.n	8001046 <Encoder_Scan+0x4a>
	    PTR->Encoder_Pin_0__State = !PTR->Encoder_Pin_0__State;
 800101e:	425a      	negs	r2, r3
 8001020:	415a      	adcs	r2, r3
 8001022:	7322      	strb	r2, [r4, #12]
	    if (PTR->Encoder_Pin_0__State && !PTR->Encoder_Pin_1__State)
 8001024:	2b00      	cmp	r3, #0
 8001026:	d10e      	bne.n	8001046 <Encoder_Scan+0x4a>
 8001028:	7b63      	ldrb	r3, [r4, #13]
 800102a:	2b00      	cmp	r3, #0
 800102c:	d10b      	bne.n	8001046 <Encoder_Scan+0x4a>
		if (HAL_GetTick() - PTR->Encoder_Time_Stamp > 10)
 800102e:	f000 fc0d 	bl	800184c <HAL_GetTick>
 8001032:	6923      	ldr	r3, [r4, #16]
 8001034:	1ac0      	subs	r0, r0, r3
 8001036:	280a      	cmp	r0, #10
 8001038:	d923      	bls.n	8001082 <Encoder_Scan+0x86>
		    PTR->Encoder_Count += 1;
 800103a:	8aa3      	ldrh	r3, [r4, #20]
 800103c:	3301      	adds	r3, #1
		    PTR->Encoder_Count += 50;
 800103e:	82a3      	strh	r3, [r4, #20]
		PTR->Encoder_Time_Stamp = HAL_GetTick();
 8001040:	f000 fc04 	bl	800184c <HAL_GetTick>
 8001044:	6120      	str	r0, [r4, #16]
	if (HAL_GPIO_ReadPin(PTR->Encoder_Pin_1_Port, PTR->Encoder_Pin_1)
 8001046:	8861      	ldrh	r1, [r4, #2]
 8001048:	68a0      	ldr	r0, [r4, #8]
 800104a:	f000 ff09 	bl	8001e60 <HAL_GPIO_ReadPin>
		!= PTR->Encoder_Pin_1__State)
 800104e:	7b63      	ldrb	r3, [r4, #13]
	if (HAL_GPIO_ReadPin(PTR->Encoder_Pin_1_Port, PTR->Encoder_Pin_1)
 8001050:	4298      	cmp	r0, r3
 8001052:	d013      	beq.n	800107c <Encoder_Scan+0x80>
	    PTR->Encoder_Pin_1__State = !PTR->Encoder_Pin_1__State;
 8001054:	425a      	negs	r2, r3
 8001056:	415a      	adcs	r2, r3
 8001058:	7362      	strb	r2, [r4, #13]
	    if (PTR->Encoder_Pin_1__State && !PTR->Encoder_Pin_0__State)
 800105a:	2b00      	cmp	r3, #0
 800105c:	d10e      	bne.n	800107c <Encoder_Scan+0x80>
 800105e:	7b23      	ldrb	r3, [r4, #12]
 8001060:	2b00      	cmp	r3, #0
 8001062:	d10b      	bne.n	800107c <Encoder_Scan+0x80>
		if (HAL_GetTick() - PTR->Encoder_Time_Stamp > 10)
 8001064:	f000 fbf2 	bl	800184c <HAL_GetTick>
 8001068:	6923      	ldr	r3, [r4, #16]
 800106a:	1ac0      	subs	r0, r0, r3
 800106c:	280a      	cmp	r0, #10
 800106e:	d913      	bls.n	8001098 <Encoder_Scan+0x9c>
		    PTR->Encoder_Count -= 1;
 8001070:	8aa3      	ldrh	r3, [r4, #20]
 8001072:	3b01      	subs	r3, #1
		    PTR->Encoder_Count -= 50;
 8001074:	82a3      	strh	r3, [r4, #20]
		PTR->Encoder_Time_Stamp = HAL_GetTick();
 8001076:	f000 fbe9 	bl	800184c <HAL_GetTick>
 800107a:	6120      	str	r0, [r4, #16]
    for (uint8_t Index = 0; Index < Attached_Encoders; Index++)
 800107c:	3501      	adds	r5, #1
 800107e:	b2ed      	uxtb	r5, r5
 8001080:	e7be      	b.n	8001000 <Encoder_Scan+0x4>
		else if (HAL_GetTick() - PTR->Encoder_Time_Stamp > 5)
 8001082:	f000 fbe3 	bl	800184c <HAL_GetTick>
 8001086:	6923      	ldr	r3, [r4, #16]
 8001088:	1ac0      	subs	r0, r0, r3
 800108a:	8aa3      	ldrh	r3, [r4, #20]
 800108c:	2805      	cmp	r0, #5
 800108e:	d901      	bls.n	8001094 <Encoder_Scan+0x98>
		    PTR->Encoder_Count += 10;
 8001090:	330a      	adds	r3, #10
 8001092:	e7d4      	b.n	800103e <Encoder_Scan+0x42>
		    PTR->Encoder_Count += 50;
 8001094:	3332      	adds	r3, #50	; 0x32
 8001096:	e7d2      	b.n	800103e <Encoder_Scan+0x42>
		else if (HAL_GetTick() - PTR->Encoder_Time_Stamp > 5)
 8001098:	f000 fbd8 	bl	800184c <HAL_GetTick>
 800109c:	6923      	ldr	r3, [r4, #16]
 800109e:	1ac0      	subs	r0, r0, r3
 80010a0:	8aa3      	ldrh	r3, [r4, #20]
 80010a2:	2805      	cmp	r0, #5
 80010a4:	d901      	bls.n	80010aa <Encoder_Scan+0xae>
		    PTR->Encoder_Count -= 10;
 80010a6:	3b0a      	subs	r3, #10
 80010a8:	e7e4      	b.n	8001074 <Encoder_Scan+0x78>
		    PTR->Encoder_Count -= 50;
 80010aa:	3b32      	subs	r3, #50	; 0x32
 80010ac:	e7e2      	b.n	8001074 <Encoder_Scan+0x78>
 80010ae:	46c0      	nop			; (mov r8, r8)
 80010b0:	2000005e 	.word	0x2000005e
 80010b4:	20000060 	.word	0x20000060

080010b8 <Encoder_Get_Count>:
    {
    if (PTR == NULL)
	{
	//Error
	}
    return PTR->Encoder_Count;
 80010b8:	2314      	movs	r3, #20
 80010ba:	5ec0      	ldrsh	r0, [r0, r3]
    }
 80010bc:	4770      	bx	lr

080010be <Encoder_Set_Count>:

/* to reset*/
void Encoder_Set_Count(Encoder_Struct_t* PTR, int16_t count)
    {
    if (PTR == NULL)
 80010be:	2800      	cmp	r0, #0
 80010c0:	d000      	beq.n	80010c4 <Encoder_Set_Count+0x6>
	{
	//Error
	}
    else
	{
	PTR->Encoder_Count = count;
 80010c2:	8281      	strh	r1, [r0, #20]
	}
    }
 80010c4:	4770      	bx	lr

080010c6 <Soft_I2C_SDA_High>:
#include "soft_i2c.h"
#include "delay_us.h"


void Soft_I2C_SDA_High(Soft_I2C_t* i2c_handle)
    {
 80010c6:	b510      	push	{r4, lr}
    HAL_GPIO_WritePin(i2c_handle->GPIO_SDA_Port, i2c_handle->GPIO_SDA_Pin,
 80010c8:	2201      	movs	r2, #1
 80010ca:	8981      	ldrh	r1, [r0, #12]
 80010cc:	6880      	ldr	r0, [r0, #8]
 80010ce:	f000 fecd 	bl	8001e6c <HAL_GPIO_WritePin>
	    GPIO_PIN_SET);
    }
 80010d2:	bd10      	pop	{r4, pc}

080010d4 <Soft_I2C_SDA_Low>:

void Soft_I2C_SDA_Low(Soft_I2C_t* i2c_handle)
    {
 80010d4:	b510      	push	{r4, lr}
    HAL_GPIO_WritePin(i2c_handle->GPIO_SDA_Port, i2c_handle->GPIO_SDA_Pin,
 80010d6:	2200      	movs	r2, #0
 80010d8:	8981      	ldrh	r1, [r0, #12]
 80010da:	6880      	ldr	r0, [r0, #8]
 80010dc:	f000 fec6 	bl	8001e6c <HAL_GPIO_WritePin>
	    GPIO_PIN_RESET);
    }
 80010e0:	bd10      	pop	{r4, pc}

080010e2 <Soft_I2C_SDA_Read>:

uint8_t Soft_I2C_SDA_Read(Soft_I2C_t* i2c_handle)
    {
 80010e2:	b510      	push	{r4, lr}
    return HAL_GPIO_ReadPin(i2c_handle->GPIO_SDA_Port, i2c_handle->GPIO_SDA_Pin);
 80010e4:	8981      	ldrh	r1, [r0, #12]
 80010e6:	6880      	ldr	r0, [r0, #8]
 80010e8:	f000 feba 	bl	8001e60 <HAL_GPIO_ReadPin>
    }
 80010ec:	bd10      	pop	{r4, pc}

080010ee <Soft_I2C_SCL_High>:

void Soft_I2C_SCL_High(Soft_I2C_t* i2c_handle)
    {
 80010ee:	b510      	push	{r4, lr}
    HAL_GPIO_WritePin(i2c_handle->GPIO_SCL_Port, i2c_handle->GPIO_SCL_Pin,
 80010f0:	2201      	movs	r2, #1
 80010f2:	8881      	ldrh	r1, [r0, #4]
 80010f4:	6800      	ldr	r0, [r0, #0]
 80010f6:	f000 feb9 	bl	8001e6c <HAL_GPIO_WritePin>
	    GPIO_PIN_SET);
    }
 80010fa:	bd10      	pop	{r4, pc}

080010fc <Soft_I2C_SCL_Low>:

void Soft_I2C_SCL_Low(Soft_I2C_t* i2c_handle)
    {
 80010fc:	b510      	push	{r4, lr}
    HAL_GPIO_WritePin(i2c_handle->GPIO_SCL_Port, i2c_handle->GPIO_SCL_Pin,
 80010fe:	2200      	movs	r2, #0
 8001100:	8881      	ldrh	r1, [r0, #4]
 8001102:	6800      	ldr	r0, [r0, #0]
 8001104:	f000 feb2 	bl	8001e6c <HAL_GPIO_WritePin>
	    GPIO_PIN_RESET);
    }
 8001108:	bd10      	pop	{r4, pc}
	...

0800110c <Soft_I2C_Init>:
    {
    return HAL_GPIO_ReadPin(i2c_handle->GPIO_SCL_Port, i2c_handle->GPIO_SCL_Pin);
    }

void Soft_I2C_Init(Soft_I2C_t* i2c_handle)
    {
 800110c:	b510      	push	{r4, lr}
 800110e:	0004      	movs	r4, r0

    GPIO_InitTypeDef GPIO_Init;

    /* GPIO Ports Clock Enable */
    __HAL_RCC_GPIOC_CLK_ENABLE()
 8001110:	2080      	movs	r0, #128	; 0x80
 8001112:	4b1f      	ldr	r3, [pc, #124]	; (8001190 <Soft_I2C_Init+0x84>)
 8001114:	0300      	lsls	r0, r0, #12
 8001116:	6959      	ldr	r1, [r3, #20]
    {
 8001118:	b08a      	sub	sp, #40	; 0x28
    __HAL_RCC_GPIOC_CLK_ENABLE()
 800111a:	4301      	orrs	r1, r0
 800111c:	6159      	str	r1, [r3, #20]
 800111e:	695a      	ldr	r2, [r3, #20]
 8001120:	4002      	ands	r2, r0
    ;
    __HAL_RCC_GPIOD_CLK_ENABLE()
 8001122:	2080      	movs	r0, #128	; 0x80
    __HAL_RCC_GPIOC_CLK_ENABLE()
 8001124:	9201      	str	r2, [sp, #4]
 8001126:	9a01      	ldr	r2, [sp, #4]
    __HAL_RCC_GPIOD_CLK_ENABLE()
 8001128:	6959      	ldr	r1, [r3, #20]
 800112a:	0340      	lsls	r0, r0, #13
 800112c:	4301      	orrs	r1, r0
 800112e:	6159      	str	r1, [r3, #20]
 8001130:	695a      	ldr	r2, [r3, #20]
 8001132:	4002      	ands	r2, r0
    ;
    __HAL_RCC_GPIOA_CLK_ENABLE()
 8001134:	2080      	movs	r0, #128	; 0x80
    __HAL_RCC_GPIOD_CLK_ENABLE()
 8001136:	9202      	str	r2, [sp, #8]
 8001138:	9a02      	ldr	r2, [sp, #8]
    __HAL_RCC_GPIOA_CLK_ENABLE()
 800113a:	6959      	ldr	r1, [r3, #20]
 800113c:	0280      	lsls	r0, r0, #10
 800113e:	4301      	orrs	r1, r0
 8001140:	6159      	str	r1, [r3, #20]
    ;
    __HAL_RCC_GPIOB_CLK_ENABLE()
 8001142:	2180      	movs	r1, #128	; 0x80
    __HAL_RCC_GPIOA_CLK_ENABLE()
 8001144:	695a      	ldr	r2, [r3, #20]
    __HAL_RCC_GPIOB_CLK_ENABLE()
 8001146:	02c9      	lsls	r1, r1, #11
    __HAL_RCC_GPIOA_CLK_ENABLE()
 8001148:	4002      	ands	r2, r0
 800114a:	9203      	str	r2, [sp, #12]
 800114c:	9a03      	ldr	r2, [sp, #12]
    __HAL_RCC_GPIOB_CLK_ENABLE()
 800114e:	695a      	ldr	r2, [r3, #20]
    ;
    Soft_I2C_SDA_High(i2c_handle);
 8001150:	0020      	movs	r0, r4
    __HAL_RCC_GPIOB_CLK_ENABLE()
 8001152:	430a      	orrs	r2, r1
 8001154:	615a      	str	r2, [r3, #20]
 8001156:	695b      	ldr	r3, [r3, #20]
 8001158:	400b      	ands	r3, r1
 800115a:	9304      	str	r3, [sp, #16]
 800115c:	9b04      	ldr	r3, [sp, #16]
    Soft_I2C_SDA_High(i2c_handle);
 800115e:	f7ff ffb2 	bl	80010c6 <Soft_I2C_SDA_High>
    Soft_I2C_SCL_High(i2c_handle);
 8001162:	0020      	movs	r0, r4
 8001164:	f7ff ffc3 	bl	80010ee <Soft_I2C_SCL_High>

    GPIO_Init.Mode  = GPIO_MODE_OUTPUT_OD;
 8001168:	2311      	movs	r3, #17
 800116a:	9306      	str	r3, [sp, #24]
    GPIO_Init.Pull  = GPIO_PULLUP;
 800116c:	3b10      	subs	r3, #16
 800116e:	9307      	str	r3, [sp, #28]
    GPIO_Init.Speed = GPIO_SPEED_FREQ_MEDIUM;
 8001170:	9308      	str	r3, [sp, #32]

    GPIO_Init.Pin = i2c_handle->GPIO_SDA_Pin;
 8001172:	89a3      	ldrh	r3, [r4, #12]
    HAL_GPIO_Init(i2c_handle->GPIO_SDA_Port, &GPIO_Init);
 8001174:	a905      	add	r1, sp, #20
 8001176:	68a0      	ldr	r0, [r4, #8]
    GPIO_Init.Pin = i2c_handle->GPIO_SDA_Pin;
 8001178:	9305      	str	r3, [sp, #20]
    HAL_GPIO_Init(i2c_handle->GPIO_SDA_Port, &GPIO_Init);
 800117a:	f000 fdc1 	bl	8001d00 <HAL_GPIO_Init>

    GPIO_Init.Pin = i2c_handle->GPIO_SCL_Pin;
 800117e:	88a3      	ldrh	r3, [r4, #4]
    HAL_GPIO_Init(i2c_handle->GPIO_SCL_Port, &GPIO_Init);
 8001180:	a905      	add	r1, sp, #20
 8001182:	6820      	ldr	r0, [r4, #0]
    GPIO_Init.Pin = i2c_handle->GPIO_SCL_Pin;
 8001184:	9305      	str	r3, [sp, #20]
    HAL_GPIO_Init(i2c_handle->GPIO_SCL_Port, &GPIO_Init);
 8001186:	f000 fdbb 	bl	8001d00 <HAL_GPIO_Init>
    }
 800118a:	b00a      	add	sp, #40	; 0x28
 800118c:	bd10      	pop	{r4, pc}
 800118e:	46c0      	nop			; (mov r8, r8)
 8001190:	40021000 	.word	0x40021000

08001194 <Soft_I2C_Start>:


/*generate start condition */

uint8_t Soft_I2C_Start(Soft_I2C_t* i2c_handle)
    {
 8001194:	b510      	push	{r4, lr}
 8001196:	0004      	movs	r4, r0

    Soft_I2C_SCL_High(i2c_handle);
 8001198:	f7ff ffa9 	bl	80010ee <Soft_I2C_SCL_High>
    Soft_I2C_SDA_Low(i2c_handle);
 800119c:	0020      	movs	r0, r4
 800119e:	f7ff ff99 	bl	80010d4 <Soft_I2C_SDA_Low>
    asm("nop");
 80011a2:	46c0      	nop			; (mov r8, r8)

    Soft_I2C_Delay();

    if (Soft_I2C_SDA_Read(i2c_handle))
 80011a4:	0020      	movs	r0, r4
 80011a6:	f7ff ff9c 	bl	80010e2 <Soft_I2C_SDA_Read>
 80011aa:	1e43      	subs	r3, r0, #1
 80011ac:	4198      	sbcs	r0, r3
	{
	return SOFT_I2C_ERR;
	}

    return SOFT_I2C_OK;
    }
 80011ae:	b2c0      	uxtb	r0, r0
 80011b0:	bd10      	pop	{r4, pc}

080011b2 <Soft_I2C_Stop>:

/*generate stop condition */

void Soft_I2C_Stop(Soft_I2C_t* i2c_handle)
    {
 80011b2:	b510      	push	{r4, lr}
 80011b4:	0004      	movs	r4, r0
    Soft_I2C_SCL_Low(i2c_handle);
 80011b6:	f7ff ffa1 	bl	80010fc <Soft_I2C_SCL_Low>
    Soft_I2C_SDA_Low(i2c_handle);
 80011ba:	0020      	movs	r0, r4
 80011bc:	f7ff ff8a 	bl	80010d4 <Soft_I2C_SDA_Low>
    Soft_I2C_SCL_High(i2c_handle);
 80011c0:	0020      	movs	r0, r4
 80011c2:	f7ff ff94 	bl	80010ee <Soft_I2C_SCL_High>
    asm("nop");
 80011c6:	46c0      	nop			; (mov r8, r8)
    Soft_I2C_Delay();
    Soft_I2C_SDA_High(i2c_handle);
 80011c8:	0020      	movs	r0, r4
 80011ca:	f7ff ff7c 	bl	80010c6 <Soft_I2C_SDA_High>
    }
 80011ce:	bd10      	pop	{r4, pc}

080011d0 <Soft_I2C_Wait_ACK>:

uint8_t Soft_I2C_Wait_ACK(Soft_I2C_t* i2c_handle)
    {
 80011d0:	b570      	push	{r4, r5, r6, lr}
 80011d2:	0004      	movs	r4, r0

    uint16_t timeOut = 5000;

    Soft_I2C_SCL_Low(i2c_handle);
 80011d4:	f7ff ff92 	bl	80010fc <Soft_I2C_SCL_Low>
    Soft_I2C_SDA_High(i2c_handle);
 80011d8:	0020      	movs	r0, r4
 80011da:	f7ff ff74 	bl	80010c6 <Soft_I2C_SDA_High>
    Soft_I2C_SCL_High(i2c_handle);
 80011de:	0020      	movs	r0, r4
 80011e0:	f7ff ff85 	bl	80010ee <Soft_I2C_SCL_High>
    asm("nop");
 80011e4:	46c0      	nop			; (mov r8, r8)
 80011e6:	4d0a      	ldr	r5, [pc, #40]	; (8001210 <Soft_I2C_Wait_ACK+0x40>)
    Soft_I2C_Delay();

    while (Soft_I2C_SDA_Read(i2c_handle))
 80011e8:	0020      	movs	r0, r4
 80011ea:	f7ff ff7a 	bl	80010e2 <Soft_I2C_SDA_Read>
 80011ee:	1e06      	subs	r6, r0, #0
 80011f0:	d103      	bne.n	80011fa <Soft_I2C_Wait_ACK+0x2a>
	    Soft_I2C_Stop(i2c_handle);
	    return SOFT_I2C_ERR;
	    }
	}

    Soft_I2C_SCL_Low(i2c_handle);
 80011f2:	0020      	movs	r0, r4
 80011f4:	f7ff ff82 	bl	80010fc <Soft_I2C_SCL_Low>

    return SOFT_I2C_OK;
 80011f8:	e007      	b.n	800120a <Soft_I2C_Wait_ACK+0x3a>
 80011fa:	3d01      	subs	r5, #1
 80011fc:	b2ad      	uxth	r5, r5
	if (timeOut == 0)
 80011fe:	2d00      	cmp	r5, #0
 8001200:	d1f2      	bne.n	80011e8 <Soft_I2C_Wait_ACK+0x18>
	    Soft_I2C_Stop(i2c_handle);
 8001202:	0020      	movs	r0, r4
 8001204:	f7ff ffd5 	bl	80011b2 <Soft_I2C_Stop>
	    return SOFT_I2C_ERR;
 8001208:	2601      	movs	r6, #1

    }
 800120a:	0030      	movs	r0, r6
 800120c:	bd70      	pop	{r4, r5, r6, pc}
 800120e:	46c0      	nop			; (mov r8, r8)
 8001210:	00001388 	.word	0x00001388

08001214 <Soft_I2C_Send_Byte>:
    Soft_I2C_Delay();

    }

uint8_t Soft_I2C_Send_Byte(Soft_I2C_t* i2c_handle, uint8_t byte)
    {
 8001214:	b570      	push	{r4, r5, r6, lr}
 8001216:	0004      	movs	r4, r0
 8001218:	000e      	movs	r6, r1

    uint8_t count = 8;

    Soft_I2C_SCL_Low(i2c_handle);

    while (count--)
 800121a:	2509      	movs	r5, #9
    Soft_I2C_SCL_Low(i2c_handle);
 800121c:	f7ff ff6e 	bl	80010fc <Soft_I2C_SCL_Low>
 8001220:	3d01      	subs	r5, #1
 8001222:	b2ed      	uxtb	r5, r5
    while (count--)
 8001224:	2d00      	cmp	r5, #0
 8001226:	d107      	bne.n	8001238 <Soft_I2C_Send_Byte+0x24>
	Soft_I2C_SCL_High(i2c_handle);
	Soft_I2C_Delay();
	Soft_I2C_SCL_Low(i2c_handle);
	Soft_I2C_Delay();
	}
    if (Soft_I2C_Wait_ACK(i2c_handle) == SOFT_I2C_ERR)
 8001228:	0020      	movs	r0, r4
 800122a:	f7ff ffd1 	bl	80011d0 <Soft_I2C_Wait_ACK>
 800122e:	3801      	subs	r0, #1
 8001230:	4243      	negs	r3, r0
 8001232:	4158      	adcs	r0, r3
	{
	return SOFT_I2C_ERR;
	}
    return SOFT_I2C_OK;
    }
 8001234:	b2c0      	uxtb	r0, r0
 8001236:	bd70      	pop	{r4, r5, r6, pc}
	if (byte & 0x80)
 8001238:	b273      	sxtb	r3, r6
	    Soft_I2C_SDA_High(i2c_handle);
 800123a:	0020      	movs	r0, r4
	if (byte & 0x80)
 800123c:	2b00      	cmp	r3, #0
 800123e:	da0c      	bge.n	800125a <Soft_I2C_Send_Byte+0x46>
	    Soft_I2C_SDA_High(i2c_handle);
 8001240:	f7ff ff41 	bl	80010c6 <Soft_I2C_SDA_High>
	Soft_I2C_SCL_High(i2c_handle);
 8001244:	0020      	movs	r0, r4
	byte <<= 1;
 8001246:	0076      	lsls	r6, r6, #1
	Soft_I2C_SCL_High(i2c_handle);
 8001248:	f7ff ff51 	bl	80010ee <Soft_I2C_SCL_High>
	byte <<= 1;
 800124c:	b2f6      	uxtb	r6, r6
    asm("nop");
 800124e:	46c0      	nop			; (mov r8, r8)
	Soft_I2C_SCL_Low(i2c_handle);
 8001250:	0020      	movs	r0, r4
 8001252:	f7ff ff53 	bl	80010fc <Soft_I2C_SCL_Low>
    asm("nop");
 8001256:	46c0      	nop			; (mov r8, r8)
 8001258:	e7e2      	b.n	8001220 <Soft_I2C_Send_Byte+0xc>
	    Soft_I2C_SDA_Low(i2c_handle);
 800125a:	f7ff ff3b 	bl	80010d4 <Soft_I2C_SDA_Low>
 800125e:	e7f1      	b.n	8001244 <Soft_I2C_Send_Byte+0x30>

08001260 <Soft_I2C_Write_Byte>:

uint8_t Soft_I2C_Write_Byte(Soft_I2C_t* i2c_handle,
	                    uint8_t     slave_address,
	                    uint8_t     register_address,
			    uint8_t     *byte)
    {
 8001260:	b5f7      	push	{r0, r1, r2, r4, r5, r6, r7, lr}
 8001262:	0004      	movs	r4, r0
 8001264:	9101      	str	r1, [sp, #4]
 8001266:	0017      	movs	r7, r2
 8001268:	001e      	movs	r6, r3

    if (Soft_I2C_Start(i2c_handle) == SOFT_I2C_ERR)
 800126a:	f7ff ff93 	bl	8001194 <Soft_I2C_Start>
 800126e:	0005      	movs	r5, r0
 8001270:	2801      	cmp	r0, #1
 8001272:	d104      	bne.n	800127e <Soft_I2C_Write_Byte+0x1e>
	{
	Soft_I2C_Stop(i2c_handle);
 8001274:	0020      	movs	r0, r4
 8001276:	f7ff ff9c 	bl	80011b2 <Soft_I2C_Stop>

    Soft_I2C_Stop(i2c_handle);

    return SOFT_I2C_OK;

    }
 800127a:	0028      	movs	r0, r5
 800127c:	bdfe      	pop	{r1, r2, r3, r4, r5, r6, r7, pc}
    if (Soft_I2C_Send_Byte(i2c_handle, slave_address) == SOFT_I2C_ERR)
 800127e:	9901      	ldr	r1, [sp, #4]
 8001280:	0020      	movs	r0, r4
 8001282:	f7ff ffc7 	bl	8001214 <Soft_I2C_Send_Byte>
 8001286:	2801      	cmp	r0, #1
 8001288:	d101      	bne.n	800128e <Soft_I2C_Write_Byte+0x2e>
	return SOFT_I2C_ERR;
 800128a:	2501      	movs	r5, #1
 800128c:	e7f5      	b.n	800127a <Soft_I2C_Write_Byte+0x1a>
    if (Soft_I2C_Send_Byte(i2c_handle, register_address) == SOFT_I2C_ERR)
 800128e:	0039      	movs	r1, r7
 8001290:	0020      	movs	r0, r4
 8001292:	f7ff ffbf 	bl	8001214 <Soft_I2C_Send_Byte>
 8001296:	2801      	cmp	r0, #1
 8001298:	d0f7      	beq.n	800128a <Soft_I2C_Write_Byte+0x2a>
    if (byte)
 800129a:	2e00      	cmp	r6, #0
 800129c:	d104      	bne.n	80012a8 <Soft_I2C_Write_Byte+0x48>
    Soft_I2C_Stop(i2c_handle);
 800129e:	0020      	movs	r0, r4
 80012a0:	f7ff ff87 	bl	80011b2 <Soft_I2C_Stop>
    return SOFT_I2C_OK;
 80012a4:	2500      	movs	r5, #0
 80012a6:	e7e8      	b.n	800127a <Soft_I2C_Write_Byte+0x1a>
	if (Soft_I2C_Send_Byte(i2c_handle, *byte) == SOFT_I2C_ERR)
 80012a8:	7831      	ldrb	r1, [r6, #0]
 80012aa:	0020      	movs	r0, r4
 80012ac:	f7ff ffb2 	bl	8001214 <Soft_I2C_Send_Byte>
 80012b0:	2801      	cmp	r0, #1
 80012b2:	d1f4      	bne.n	800129e <Soft_I2C_Write_Byte+0x3e>
 80012b4:	e7e9      	b.n	800128a <Soft_I2C_Write_Byte+0x2a>

080012b6 <Soft_I2C_Write_Bytes>:
uint8_t Soft_I2C_Write_Bytes(Soft_I2C_t* i2c_handle,
	                     uint8_t     slave_address,
	                     uint8_t     register_address,
			     uint8_t     *buf,
			     uint8_t     num)
    {
 80012b6:	b5f7      	push	{r0, r1, r2, r4, r5, r6, r7, lr}
 80012b8:	9301      	str	r3, [sp, #4]
 80012ba:	ab08      	add	r3, sp, #32
 80012bc:	0004      	movs	r4, r0
 80012be:	000f      	movs	r7, r1
 80012c0:	9200      	str	r2, [sp, #0]
 80012c2:	781e      	ldrb	r6, [r3, #0]

    if (Soft_I2C_Start(i2c_handle) == SOFT_I2C_ERR)
 80012c4:	f7ff ff66 	bl	8001194 <Soft_I2C_Start>
 80012c8:	0005      	movs	r5, r0
 80012ca:	2801      	cmp	r0, #1
 80012cc:	d104      	bne.n	80012d8 <Soft_I2C_Write_Bytes+0x22>
	{
	Soft_I2C_Stop(i2c_handle);
 80012ce:	0020      	movs	r0, r4
 80012d0:	f7ff ff6f 	bl	80011b2 <Soft_I2C_Stop>

    Soft_I2C_Stop(i2c_handle);

    return SOFT_I2C_OK;

    }
 80012d4:	0028      	movs	r0, r5
 80012d6:	bdfe      	pop	{r1, r2, r3, r4, r5, r6, r7, pc}
    if (Soft_I2C_Send_Byte(i2c_handle, slave_address) == SOFT_I2C_ERR)
 80012d8:	0039      	movs	r1, r7
 80012da:	0020      	movs	r0, r4
 80012dc:	f7ff ff9a 	bl	8001214 <Soft_I2C_Send_Byte>
 80012e0:	2801      	cmp	r0, #1
 80012e2:	d101      	bne.n	80012e8 <Soft_I2C_Write_Bytes+0x32>
	return SOFT_I2C_ERR;
 80012e4:	2501      	movs	r5, #1
 80012e6:	e7f5      	b.n	80012d4 <Soft_I2C_Write_Bytes+0x1e>
    if (Soft_I2C_Send_Byte(i2c_handle, register_address) == SOFT_I2C_ERR)
 80012e8:	9900      	ldr	r1, [sp, #0]
 80012ea:	0020      	movs	r0, r4
 80012ec:	f7ff ff92 	bl	8001214 <Soft_I2C_Send_Byte>
 80012f0:	2801      	cmp	r0, #1
 80012f2:	d0f7      	beq.n	80012e4 <Soft_I2C_Write_Bytes+0x2e>
 80012f4:	9d01      	ldr	r5, [sp, #4]
 80012f6:	19ae      	adds	r6, r5, r6
    while (num--)
 80012f8:	42b5      	cmp	r5, r6
 80012fa:	d104      	bne.n	8001306 <Soft_I2C_Write_Bytes+0x50>
    Soft_I2C_Stop(i2c_handle);
 80012fc:	0020      	movs	r0, r4
 80012fe:	f7ff ff58 	bl	80011b2 <Soft_I2C_Stop>
    return SOFT_I2C_OK;
 8001302:	2500      	movs	r5, #0
 8001304:	e7e6      	b.n	80012d4 <Soft_I2C_Write_Bytes+0x1e>
	if (Soft_I2C_Send_Byte(i2c_handle, *buf++) == SOFT_I2C_ERR)
 8001306:	7829      	ldrb	r1, [r5, #0]
 8001308:	0020      	movs	r0, r4
 800130a:	f7ff ff83 	bl	8001214 <Soft_I2C_Send_Byte>
 800130e:	3501      	adds	r5, #1
 8001310:	2801      	cmp	r0, #1
 8001312:	d1f1      	bne.n	80012f8 <Soft_I2C_Write_Bytes+0x42>
 8001314:	e7e6      	b.n	80012e4 <Soft_I2C_Write_Bytes+0x2e>
	...

08001318 <Foot_Switch_Callback>:
    }

void Foot_Switch_Callback(uint8_t Clicked_Count)
    {

    if(Clicked_Count == 1)
 8001318:	2801      	cmp	r0, #1
 800131a:	d101      	bne.n	8001320 <Foot_Switch_Callback+0x8>
	{
	Foot_Switchn_Flag = 1;
 800131c:	4b01      	ldr	r3, [pc, #4]	; (8001324 <Foot_Switch_Callback+0xc>)
 800131e:	7018      	strb	r0, [r3, #0]
	}
    }
 8001320:	4770      	bx	lr
 8001322:	46c0      	nop			; (mov r8, r8)
 8001324:	20000068 	.word	0x20000068

08001328 <Systic_Callback>:
    {
 8001328:	b510      	push	{r4, lr}
    Encoder_Scan();
 800132a:	f7ff fe67 	bl	8000ffc <Encoder_Scan>
    Button_Scan();
 800132e:	f7ff f833 	bl	8000398 <Button_Scan>
    }
 8001332:	bd10      	pop	{r4, pc}

08001334 <Set_Auto_Pulse_Delay>:
    {
 8001334:	4a06      	ldr	r2, [pc, #24]	; (8001350 <Set_Auto_Pulse_Delay+0x1c>)
 8001336:	1c03      	adds	r3, r0, #0
 8001338:	4290      	cmp	r0, r2
 800133a:	dd00      	ble.n	800133e <Set_Auto_Pulse_Delay+0xa>
 800133c:	1c13      	adds	r3, r2, #0
    Auto_Pulse_Delay = delay;
 800133e:	22fa      	movs	r2, #250	; 0xfa
 8001340:	b219      	sxth	r1, r3
 8001342:	0052      	lsls	r2, r2, #1
 8001344:	4291      	cmp	r1, r2
 8001346:	da00      	bge.n	800134a <Set_Auto_Pulse_Delay+0x16>
 8001348:	1c13      	adds	r3, r2, #0
 800134a:	4a02      	ldr	r2, [pc, #8]	; (8001354 <Set_Auto_Pulse_Delay+0x20>)
 800134c:	8013      	strh	r3, [r2, #0]
    }
 800134e:	4770      	bx	lr
 8001350:	00002710 	.word	0x00002710
 8001354:	20000018 	.word	0x20000018

08001358 <Get_Auto_Pulse_Delay>:
    return Auto_Pulse_Delay;
 8001358:	4b01      	ldr	r3, [pc, #4]	; (8001360 <Get_Auto_Pulse_Delay+0x8>)
 800135a:	8818      	ldrh	r0, [r3, #0]
    }
 800135c:	4770      	bx	lr
 800135e:	46c0      	nop			; (mov r8, r8)
 8001360:	20000018 	.word	0x20000018

08001364 <Set_Main_Pulse_Duration>:
    {
 8001364:	1c03      	adds	r3, r0, #0
 8001366:	2832      	cmp	r0, #50	; 0x32
 8001368:	dd00      	ble.n	800136c <Set_Main_Pulse_Duration+0x8>
 800136a:	2332      	movs	r3, #50	; 0x32
    Main_Pulse_Duration = duration;
 800136c:	b21a      	sxth	r2, r3
 800136e:	2a00      	cmp	r2, #0
 8001370:	dc00      	bgt.n	8001374 <Set_Main_Pulse_Duration+0x10>
 8001372:	2301      	movs	r3, #1
 8001374:	4a01      	ldr	r2, [pc, #4]	; (800137c <Set_Main_Pulse_Duration+0x18>)
 8001376:	8013      	strh	r3, [r2, #0]
    }
 8001378:	4770      	bx	lr
 800137a:	46c0      	nop			; (mov r8, r8)
 800137c:	2000001c 	.word	0x2000001c

08001380 <Get_Main_Pulse_Duration>:
    return Main_Pulse_Duration;
 8001380:	4b01      	ldr	r3, [pc, #4]	; (8001388 <Get_Main_Pulse_Duration+0x8>)
 8001382:	8818      	ldrh	r0, [r3, #0]
    }
 8001384:	4770      	bx	lr
 8001386:	46c0      	nop			; (mov r8, r8)
 8001388:	2000001c 	.word	0x2000001c

0800138c <Set_Short_Pulse_Duration>:
    {
 800138c:	1c03      	adds	r3, r0, #0
 800138e:	2814      	cmp	r0, #20
 8001390:	dd00      	ble.n	8001394 <Set_Short_Pulse_Duration+0x8>
 8001392:	2314      	movs	r3, #20
    Short_Pulse_Duration = duration;
 8001394:	b21a      	sxth	r2, r3
 8001396:	2a00      	cmp	r2, #0
 8001398:	dc00      	bgt.n	800139c <Set_Short_Pulse_Duration+0x10>
 800139a:	2301      	movs	r3, #1
 800139c:	4a01      	ldr	r2, [pc, #4]	; (80013a4 <Set_Short_Pulse_Duration+0x18>)
 800139e:	8013      	strh	r3, [r2, #0]
    }
 80013a0:	4770      	bx	lr
 80013a2:	46c0      	nop			; (mov r8, r8)
 80013a4:	2000001e 	.word	0x2000001e

080013a8 <Get_Short_Pulse_Duration>:
    return Short_Pulse_Duration;
 80013a8:	4b01      	ldr	r3, [pc, #4]	; (80013b0 <Get_Short_Pulse_Duration+0x8>)
 80013aa:	8818      	ldrh	r0, [r3, #0]
    }
 80013ac:	4770      	bx	lr
 80013ae:	46c0      	nop			; (mov r8, r8)
 80013b0:	2000001e 	.word	0x2000001e

080013b4 <Set_Batt_Alarm>:
    {
 80013b4:	4a06      	ldr	r2, [pc, #24]	; (80013d0 <Set_Batt_Alarm+0x1c>)
 80013b6:	1c03      	adds	r3, r0, #0
 80013b8:	4290      	cmp	r0, r2
 80013ba:	dd00      	ble.n	80013be <Set_Batt_Alarm+0xa>
 80013bc:	1c13      	adds	r3, r2, #0
    Batt_Alarm = voltage;
 80013be:	4a05      	ldr	r2, [pc, #20]	; (80013d4 <Set_Batt_Alarm+0x20>)
 80013c0:	b219      	sxth	r1, r3
 80013c2:	4291      	cmp	r1, r2
 80013c4:	da00      	bge.n	80013c8 <Set_Batt_Alarm+0x14>
 80013c6:	1c13      	adds	r3, r2, #0
 80013c8:	4a03      	ldr	r2, [pc, #12]	; (80013d8 <Set_Batt_Alarm+0x24>)
 80013ca:	8013      	strh	r3, [r2, #0]
    }
 80013cc:	4770      	bx	lr
 80013ce:	46c0      	nop			; (mov r8, r8)
 80013d0:	000032c8 	.word	0x000032c8
 80013d4:	00002710 	.word	0x00002710
 80013d8:	2000001a 	.word	0x2000001a

080013dc <Get_Batt_Alarm>:
    return Batt_Alarm;
 80013dc:	4b01      	ldr	r3, [pc, #4]	; (80013e4 <Get_Batt_Alarm+0x8>)
 80013de:	8818      	ldrh	r0, [r3, #0]
    }
 80013e0:	4770      	bx	lr
 80013e2:	46c0      	nop			; (mov r8, r8)
 80013e4:	2000001a 	.word	0x2000001a

080013e8 <Get_Welder_Status>:
    return Welder_Enable_Flag;
 80013e8:	4b01      	ldr	r3, [pc, #4]	; (80013f0 <Get_Welder_Status+0x8>)
 80013ea:	7818      	ldrb	r0, [r3, #0]
    }
 80013ec:	4770      	bx	lr
 80013ee:	46c0      	nop			; (mov r8, r8)
 80013f0:	20000020 	.word	0x20000020

080013f4 <Disble_Auto_Welder>:
    Welder_Auto_Flag = 0;
 80013f4:	2200      	movs	r2, #0
 80013f6:	4b01      	ldr	r3, [pc, #4]	; (80013fc <Disble_Auto_Welder+0x8>)
 80013f8:	701a      	strb	r2, [r3, #0]
    }
 80013fa:	4770      	bx	lr
 80013fc:	20000070 	.word	0x20000070

08001400 <Enable_Auto_Welder>:
    Welder_Auto_Flag = 1;
 8001400:	2201      	movs	r2, #1
 8001402:	4b01      	ldr	r3, [pc, #4]	; (8001408 <Enable_Auto_Welder+0x8>)
 8001404:	701a      	strb	r2, [r3, #0]
    }
 8001406:	4770      	bx	lr
 8001408:	20000070 	.word	0x20000070

0800140c <Spot_Welder_Main>:

void Spot_Welder_Main()
    {

    Soft_I2C1.GPIO_SCL_Pin = SOFT_I2C_SCL_PIN;
 800140c:	2380      	movs	r3, #128	; 0x80
 800140e:	4827      	ldr	r0, [pc, #156]	; (80014ac <Spot_Welder_Main+0xa0>)
 8001410:	009b      	lsls	r3, r3, #2
    {
 8001412:	b570      	push	{r4, r5, r6, lr}
    Soft_I2C1.GPIO_SCL_Pin = SOFT_I2C_SCL_PIN;
 8001414:	8083      	strh	r3, [r0, #4]
    Soft_I2C1.GPIO_SCL_Port = SOFT_I2C_SCL_PORT;
 8001416:	2590      	movs	r5, #144	; 0x90

    Soft_I2C1.GPIO_SDA_Pin = SOFT_I2C_SDA_PIN;
 8001418:	2380      	movs	r3, #128	; 0x80
    Soft_I2C1.GPIO_SCL_Port = SOFT_I2C_SCL_PORT;
 800141a:	05ed      	lsls	r5, r5, #23
    Soft_I2C1.GPIO_SDA_Pin = SOFT_I2C_SDA_PIN;
 800141c:	00db      	lsls	r3, r3, #3
 800141e:	8183      	strh	r3, [r0, #12]
    Soft_I2C1.GPIO_SCL_Port = SOFT_I2C_SCL_PORT;
 8001420:	6005      	str	r5, [r0, #0]
    Soft_I2C1.GPIO_SDA_Port = SOFT_I2C_SDA_PORT;
 8001422:	6085      	str	r5, [r0, #8]

    Soft_I2C_Init(&Soft_I2C1);
 8001424:	f7ff fe72 	bl	800110c <Soft_I2C_Init>

    ssd1306_Init();
 8001428:	f000 f892 	bl	8001550 <ssd1306_Init>

    ssd1306_Fill(Black);
 800142c:	2000      	movs	r0, #0
 800142e:	f000 f85d 	bl	80014ec <ssd1306_Fill>
    ssd1306_SetCursor(0, 0);
 8001432:	2100      	movs	r1, #0
 8001434:	0008      	movs	r0, r1
 8001436:	f000 f975 	bl	8001724 <ssd1306_SetCursor>
    ssd1306_WriteString("  Arduino", Font_11x18, White);
 800143a:	4c1d      	ldr	r4, [pc, #116]	; (80014b0 <Spot_Welder_Main+0xa4>)
 800143c:	2301      	movs	r3, #1
 800143e:	6862      	ldr	r2, [r4, #4]
 8001440:	6821      	ldr	r1, [r4, #0]
 8001442:	481c      	ldr	r0, [pc, #112]	; (80014b4 <Spot_Welder_Main+0xa8>)
 8001444:	f000 f95a 	bl	80016fc <ssd1306_WriteString>
    ssd1306_SetCursor(0, 20);
 8001448:	2114      	movs	r1, #20
 800144a:	2000      	movs	r0, #0
 800144c:	f000 f96a 	bl	8001724 <ssd1306_SetCursor>
    ssd1306_WriteString("Spot Welder", Font_11x18, White);
 8001450:	2301      	movs	r3, #1
 8001452:	6821      	ldr	r1, [r4, #0]
 8001454:	6862      	ldr	r2, [r4, #4]
 8001456:	4818      	ldr	r0, [pc, #96]	; (80014b8 <Spot_Welder_Main+0xac>)
 8001458:	f000 f950 	bl	80016fc <ssd1306_WriteString>
    ssd1306_SetCursor(0, 40);
 800145c:	2128      	movs	r1, #40	; 0x28
 800145e:	2000      	movs	r0, #0
 8001460:	f000 f960 	bl	8001724 <ssd1306_SetCursor>
    ssd1306_WriteString("    V3", Font_11x18, White);
 8001464:	cc06      	ldmia	r4!, {r1, r2}
 8001466:	2301      	movs	r3, #1
 8001468:	4814      	ldr	r0, [pc, #80]	; (80014bc <Spot_Welder_Main+0xb0>)
 800146a:	f000 f947 	bl	80016fc <ssd1306_WriteString>
    ssd1306_UpdateScreen();
 800146e:	f000 f84b 	bl	8001508 <ssd1306_UpdateScreen>

    Foot_Switch.Button_Pin = Foot_Switch_Pin;
 8001472:	2310      	movs	r3, #16
 8001474:	4812      	ldr	r0, [pc, #72]	; (80014c0 <Spot_Welder_Main+0xb4>)
 8001476:	8003      	strh	r3, [r0, #0]
    Foot_Switch.Button_Pin_Port = Foot_Switch_GPIO_Port;
    Foot_Switch.Button_Pressed_Logic = LOW;
 8001478:	2300      	movs	r3, #0
 800147a:	7203      	strb	r3, [r0, #8]
    Foot_Switch.Callback = Foot_Switch_Callback;
 800147c:	4b11      	ldr	r3, [pc, #68]	; (80014c4 <Spot_Welder_Main+0xb8>)
    Foot_Switch.Button_Pin_Port = Foot_Switch_GPIO_Port;
 800147e:	6045      	str	r5, [r0, #4]
    Foot_Switch.Callback = Foot_Switch_Callback;
 8001480:	6183      	str	r3, [r0, #24]
    Button_Attach(&Foot_Switch);
 8001482:	f7fe ff3d 	bl	8000300 <Button_Attach>



    Init_Menu();
 8001486:	f7ff f8b9 	bl	80005fc <Init_Menu>

    HAL_Delay(2000);
 800148a:	20fa      	movs	r0, #250	; 0xfa
 800148c:	00c0      	lsls	r0, r0, #3
 800148e:	f000 f9e3 	bl	8001858 <HAL_Delay>
    while (1)
	{

	static uint32_t Scan_Time_Stamp = 0;

	if (HAL_GetTick() - Scan_Time_Stamp > (100 - 1))
 8001492:	f000 f9db 	bl	800184c <HAL_GetTick>
 8001496:	4c0c      	ldr	r4, [pc, #48]	; (80014c8 <Spot_Welder_Main+0xbc>)
 8001498:	6823      	ldr	r3, [r4, #0]
 800149a:	1ac0      	subs	r0, r0, r3
 800149c:	2863      	cmp	r0, #99	; 0x63
 800149e:	d9f8      	bls.n	8001492 <Spot_Welder_Main+0x86>
	    {

	    Scan_Time_Stamp = HAL_GetTick();
 80014a0:	f000 f9d4 	bl	800184c <HAL_GetTick>
 80014a4:	6020      	str	r0, [r4, #0]

	    Handle_Menu();
 80014a6:	f7ff f8e5 	bl	8000674 <Handle_Menu>
 80014aa:	e7f2      	b.n	8001492 <Spot_Welder_Main+0x86>
 80014ac:	20000530 	.word	0x20000530
 80014b0:	20000000 	.word	0x20000000
 80014b4:	08003aa1 	.word	0x08003aa1
 80014b8:	08003aab 	.word	0x08003aab
 80014bc:	08003ab7 	.word	0x08003ab7
 80014c0:	200004f0 	.word	0x200004f0
 80014c4:	08001319 	.word	0x08001319
 80014c8:	2000006c 	.word	0x2000006c

080014cc <ssd1306_WriteCommand>:
//
//	Een byte sturen naar het commando register
//	Kan niet gebruikt worden buiten deze file
//
 void ssd1306_WriteCommand(uint8_t command)
{
 80014cc:	b507      	push	{r0, r1, r2, lr}
 80014ce:	466b      	mov	r3, sp
 80014d0:	3307      	adds	r3, #7
 80014d2:	7018      	strb	r0, [r3, #0]
    if(Soft_I2C_Write_Byte(&Soft_I2C1, SSD1306_I2C_ADDR,0x00, &command)==SOFT_I2C_ERR)
 80014d4:	2200      	movs	r2, #0
 80014d6:	2178      	movs	r1, #120	; 0x78
 80014d8:	4803      	ldr	r0, [pc, #12]	; (80014e8 <ssd1306_WriteCommand+0x1c>)
 80014da:	f7ff fec1 	bl	8001260 <Soft_I2C_Write_Byte>
 80014de:	2801      	cmp	r0, #1
 80014e0:	d101      	bne.n	80014e6 <ssd1306_WriteCommand+0x1a>
    {
    	Error_Handler();
 80014e2:	f7ff f84f 	bl	8000584 <Error_Handler>
    }
}
 80014e6:	bd07      	pop	{r0, r1, r2, pc}
 80014e8:	20000530 	.word	0x20000530

080014ec <ssd1306_Fill>:
	/* Set memory */
	uint32_t i;

	for(i = 0; i < sizeof(SSD1306_Buffer); i++)
	{
		SSD1306_Buffer[i] = (color == Black) ? 0x00 : 0xFF;
 80014ec:	1e42      	subs	r2, r0, #1
 80014ee:	4190      	sbcs	r0, r2
	for(i = 0; i < sizeof(SSD1306_Buffer); i++)
 80014f0:	2280      	movs	r2, #128	; 0x80
 80014f2:	2300      	movs	r3, #0
		SSD1306_Buffer[i] = (color == Black) ? 0x00 : 0xFF;
 80014f4:	4903      	ldr	r1, [pc, #12]	; (8001504 <ssd1306_Fill+0x18>)
 80014f6:	4240      	negs	r0, r0
	for(i = 0; i < sizeof(SSD1306_Buffer); i++)
 80014f8:	00d2      	lsls	r2, r2, #3
		SSD1306_Buffer[i] = (color == Black) ? 0x00 : 0xFF;
 80014fa:	54c8      	strb	r0, [r1, r3]
	for(i = 0; i < sizeof(SSD1306_Buffer); i++)
 80014fc:	3301      	adds	r3, #1
 80014fe:	4293      	cmp	r3, r2
 8001500:	d1fb      	bne.n	80014fa <ssd1306_Fill+0xe>
	}
}
 8001502:	4770      	bx	lr
 8001504:	20000078 	.word	0x20000078

08001508 <ssd1306_UpdateScreen>:

//
//	Alle weizigingen in de buffer naar het scherm sturen
//
void ssd1306_UpdateScreen(void) 
{
 8001508:	b537      	push	{r0, r1, r2, r4, r5, lr}
 800150a:	2400      	movs	r4, #0
		ssd1306_WriteCommand(0xB0 + i);
		ssd1306_WriteCommand(0x00);
		ssd1306_WriteCommand(0x10);

		// We schrijven alles map per map weg
	    if(Soft_I2C_Write_Bytes(&Soft_I2C1,SSD1306_I2C_ADDR,0x40,&SSD1306_Buffer[SSD1306_WIDTH * i],SSD1306_WIDTH)==SOFT_I2C_ERR)
 800150c:	2580      	movs	r5, #128	; 0x80
		ssd1306_WriteCommand(0xB0 + i);
 800150e:	0020      	movs	r0, r4
 8001510:	3850      	subs	r0, #80	; 0x50
 8001512:	b2c0      	uxtb	r0, r0
 8001514:	f7ff ffda 	bl	80014cc <ssd1306_WriteCommand>
		ssd1306_WriteCommand(0x00);
 8001518:	2000      	movs	r0, #0
 800151a:	f7ff ffd7 	bl	80014cc <ssd1306_WriteCommand>
		ssd1306_WriteCommand(0x10);
 800151e:	2010      	movs	r0, #16
 8001520:	f7ff ffd4 	bl	80014cc <ssd1306_WriteCommand>
	    if(Soft_I2C_Write_Bytes(&Soft_I2C1,SSD1306_I2C_ADDR,0x40,&SSD1306_Buffer[SSD1306_WIDTH * i],SSD1306_WIDTH)==SOFT_I2C_ERR)
 8001524:	4a08      	ldr	r2, [pc, #32]	; (8001548 <ssd1306_UpdateScreen+0x40>)
 8001526:	01e3      	lsls	r3, r4, #7
 8001528:	189b      	adds	r3, r3, r2
 800152a:	9500      	str	r5, [sp, #0]
 800152c:	2240      	movs	r2, #64	; 0x40
 800152e:	2178      	movs	r1, #120	; 0x78
 8001530:	4806      	ldr	r0, [pc, #24]	; (800154c <ssd1306_UpdateScreen+0x44>)
 8001532:	f7ff fec0 	bl	80012b6 <Soft_I2C_Write_Bytes>
 8001536:	2801      	cmp	r0, #1
 8001538:	d101      	bne.n	800153e <ssd1306_UpdateScreen+0x36>
	    {
	    	Error_Handler();
 800153a:	f7ff f823 	bl	8000584 <Error_Handler>
 800153e:	3401      	adds	r4, #1
	for (i = 0; i < 8; i++) {
 8001540:	2c08      	cmp	r4, #8
 8001542:	d1e4      	bne.n	800150e <ssd1306_UpdateScreen+0x6>
	    }
	}
}
 8001544:	bd37      	pop	{r0, r1, r2, r4, r5, pc}
 8001546:	46c0      	nop			; (mov r8, r8)
 8001548:	20000078 	.word	0x20000078
 800154c:	20000530 	.word	0x20000530

08001550 <ssd1306_Init>:
{	
 8001550:	b510      	push	{r4, lr}
	ssd1306_WriteCommand(0xAE); //display off
 8001552:	20ae      	movs	r0, #174	; 0xae
 8001554:	f7ff ffba 	bl	80014cc <ssd1306_WriteCommand>
	ssd1306_WriteCommand(0x20); //Set Memory Addressing Mode   
 8001558:	2020      	movs	r0, #32
 800155a:	f7ff ffb7 	bl	80014cc <ssd1306_WriteCommand>
	ssd1306_WriteCommand(0x10); //00,Horizontal Addressing Mode;01,Vertical Addressing Mode;10,Page Addressing Mode (RESET);11,Invalid
 800155e:	2010      	movs	r0, #16
 8001560:	f7ff ffb4 	bl	80014cc <ssd1306_WriteCommand>
	ssd1306_WriteCommand(0xB0); //Set Page Start Address for Page Addressing Mode,0-7
 8001564:	20b0      	movs	r0, #176	; 0xb0
 8001566:	f7ff ffb1 	bl	80014cc <ssd1306_WriteCommand>
	ssd1306_WriteCommand(0xC8); //Set COM Output Scan Direction
 800156a:	20c8      	movs	r0, #200	; 0xc8
 800156c:	f7ff ffae 	bl	80014cc <ssd1306_WriteCommand>
	ssd1306_WriteCommand(0x00); //---set low column address
 8001570:	2000      	movs	r0, #0
 8001572:	f7ff ffab 	bl	80014cc <ssd1306_WriteCommand>
	ssd1306_WriteCommand(0x10); //---set high column address
 8001576:	2010      	movs	r0, #16
 8001578:	f7ff ffa8 	bl	80014cc <ssd1306_WriteCommand>
	ssd1306_WriteCommand(0x40); //--set start line address
 800157c:	2040      	movs	r0, #64	; 0x40
 800157e:	f7ff ffa5 	bl	80014cc <ssd1306_WriteCommand>
	ssd1306_WriteCommand(0x81); //--set contrast control register
 8001582:	2081      	movs	r0, #129	; 0x81
 8001584:	f7ff ffa2 	bl	80014cc <ssd1306_WriteCommand>
	ssd1306_WriteCommand(0xFF);
 8001588:	20ff      	movs	r0, #255	; 0xff
 800158a:	f7ff ff9f 	bl	80014cc <ssd1306_WriteCommand>
	ssd1306_WriteCommand(0xA1); //--set segment re-map 0 to 127
 800158e:	20a1      	movs	r0, #161	; 0xa1
 8001590:	f7ff ff9c 	bl	80014cc <ssd1306_WriteCommand>
	ssd1306_WriteCommand(0xA6); //--set normal display
 8001594:	20a6      	movs	r0, #166	; 0xa6
 8001596:	f7ff ff99 	bl	80014cc <ssd1306_WriteCommand>
	ssd1306_WriteCommand(0xA8); //--set multiplex ratio(1 to 64)
 800159a:	20a8      	movs	r0, #168	; 0xa8
 800159c:	f7ff ff96 	bl	80014cc <ssd1306_WriteCommand>
	ssd1306_WriteCommand(0x3F); //
 80015a0:	203f      	movs	r0, #63	; 0x3f
 80015a2:	f7ff ff93 	bl	80014cc <ssd1306_WriteCommand>
	ssd1306_WriteCommand(0xA4); //0xa4,Output follows RAM content;0xa5,Output ignores RAM content
 80015a6:	20a4      	movs	r0, #164	; 0xa4
 80015a8:	f7ff ff90 	bl	80014cc <ssd1306_WriteCommand>
	ssd1306_WriteCommand(0xD3); //-set display offset
 80015ac:	20d3      	movs	r0, #211	; 0xd3
 80015ae:	f7ff ff8d 	bl	80014cc <ssd1306_WriteCommand>
	ssd1306_WriteCommand(0x00); //-not offset
 80015b2:	2000      	movs	r0, #0
 80015b4:	f7ff ff8a 	bl	80014cc <ssd1306_WriteCommand>
	ssd1306_WriteCommand(0xD5); //--set display clock divide ratio/oscillator frequency
 80015b8:	20d5      	movs	r0, #213	; 0xd5
 80015ba:	f7ff ff87 	bl	80014cc <ssd1306_WriteCommand>
	ssd1306_WriteCommand(0xF0); //--set divide ratio
 80015be:	20f0      	movs	r0, #240	; 0xf0
 80015c0:	f7ff ff84 	bl	80014cc <ssd1306_WriteCommand>
	ssd1306_WriteCommand(0xD9); //--set pre-charge period
 80015c4:	20d9      	movs	r0, #217	; 0xd9
 80015c6:	f7ff ff81 	bl	80014cc <ssd1306_WriteCommand>
	ssd1306_WriteCommand(0x22); //
 80015ca:	2022      	movs	r0, #34	; 0x22
 80015cc:	f7ff ff7e 	bl	80014cc <ssd1306_WriteCommand>
	ssd1306_WriteCommand(0xDA); //--set com pins hardware configuration
 80015d0:	20da      	movs	r0, #218	; 0xda
 80015d2:	f7ff ff7b 	bl	80014cc <ssd1306_WriteCommand>
	ssd1306_WriteCommand(0x12);
 80015d6:	2012      	movs	r0, #18
 80015d8:	f7ff ff78 	bl	80014cc <ssd1306_WriteCommand>
	ssd1306_WriteCommand(0xDB); //--set vcomh
 80015dc:	20db      	movs	r0, #219	; 0xdb
 80015de:	f7ff ff75 	bl	80014cc <ssd1306_WriteCommand>
	ssd1306_WriteCommand(0x20); //0x20,0.77xVcc
 80015e2:	2020      	movs	r0, #32
 80015e4:	f7ff ff72 	bl	80014cc <ssd1306_WriteCommand>
	ssd1306_WriteCommand(0x8D); //--set DC-DC enable
 80015e8:	208d      	movs	r0, #141	; 0x8d
 80015ea:	f7ff ff6f 	bl	80014cc <ssd1306_WriteCommand>
	ssd1306_WriteCommand(0x14); //
 80015ee:	2014      	movs	r0, #20
 80015f0:	f7ff ff6c 	bl	80014cc <ssd1306_WriteCommand>
	ssd1306_WriteCommand(0xAF); //--turn on SSD1306 panel
 80015f4:	20af      	movs	r0, #175	; 0xaf
 80015f6:	f7ff ff69 	bl	80014cc <ssd1306_WriteCommand>
	ssd1306_Fill(Black);
 80015fa:	2000      	movs	r0, #0
 80015fc:	f7ff ff76 	bl	80014ec <ssd1306_Fill>
	ssd1306_UpdateScreen();
 8001600:	f7ff ff82 	bl	8001508 <ssd1306_UpdateScreen>
	SSD1306.CurrentX = 0;
 8001604:	2200      	movs	r2, #0
	SSD1306.Initialized = 1;
 8001606:	2001      	movs	r0, #1
	SSD1306.CurrentX = 0;
 8001608:	4b02      	ldr	r3, [pc, #8]	; (8001614 <ssd1306_Init+0xc4>)
 800160a:	801a      	strh	r2, [r3, #0]
	SSD1306.CurrentY = 0;
 800160c:	805a      	strh	r2, [r3, #2]
	SSD1306.Initialized = 1;
 800160e:	7158      	strb	r0, [r3, #5]
}
 8001610:	bd10      	pop	{r4, pc}
 8001612:	46c0      	nop			; (mov r8, r8)
 8001614:	20000072 	.word	0x20000072

08001618 <ssd1306_DrawPixel>:
//	Y => Y coordinaat
//	color => kleur die pixel moet krijgen
//
void ssd1306_DrawPixel(uint8_t x, uint8_t y, SSD1306_COLOR color)
{
	if (x >= SSD1306_WIDTH || y >= SSD1306_HEIGHT) 
 8001618:	b243      	sxtb	r3, r0
{
 800161a:	b570      	push	{r4, r5, r6, lr}
	if (x >= SSD1306_WIDTH || y >= SSD1306_HEIGHT) 
 800161c:	2b00      	cmp	r3, #0
 800161e:	db16      	blt.n	800164e <ssd1306_DrawPixel+0x36>
 8001620:	293f      	cmp	r1, #63	; 0x3f
 8001622:	d814      	bhi.n	800164e <ssd1306_DrawPixel+0x36>
		// We gaan niet buiten het scherm schrijven
		return;
	}
	
	// Kijken of de pixel geinverteerd moet worden
	if (SSD1306.Inverted) 
 8001624:	4b0c      	ldr	r3, [pc, #48]	; (8001658 <ssd1306_DrawPixel+0x40>)
 8001626:	791b      	ldrb	r3, [r3, #4]
 8001628:	2b00      	cmp	r3, #0
 800162a:	d002      	beq.n	8001632 <ssd1306_DrawPixel+0x1a>
	{
		color = (SSD1306_COLOR)!color;
 800162c:	4253      	negs	r3, r2
 800162e:	415a      	adcs	r2, r3
 8001630:	b2d2      	uxtb	r2, r2
 8001632:	2407      	movs	r4, #7
 8001634:	08cb      	lsrs	r3, r1, #3
 8001636:	400c      	ands	r4, r1
 8001638:	2101      	movs	r1, #1
 800163a:	40a1      	lsls	r1, r4
 800163c:	01db      	lsls	r3, r3, #7
 800163e:	4d07      	ldr	r5, [pc, #28]	; (800165c <ssd1306_DrawPixel+0x44>)
 8001640:	1818      	adds	r0, r3, r0
 8001642:	562e      	ldrsb	r6, [r5, r0]
 8001644:	b24b      	sxtb	r3, r1
	}
	
	// We zetten de juiste kleur voor de pixel
	if (color == White)
 8001646:	2a01      	cmp	r2, #1
 8001648:	d102      	bne.n	8001650 <ssd1306_DrawPixel+0x38>
	{
		SSD1306_Buffer[x + (y / 8) * SSD1306_WIDTH] |= 1 << (y % 8);
 800164a:	4333      	orrs	r3, r6
 800164c:	542b      	strb	r3, [r5, r0]
	} 
	else 
	{
		SSD1306_Buffer[x + (y / 8) * SSD1306_WIDTH] &= ~(1 << (y % 8));
	}
}
 800164e:	bd70      	pop	{r4, r5, r6, pc}
		SSD1306_Buffer[x + (y / 8) * SSD1306_WIDTH] &= ~(1 << (y % 8));
 8001650:	439e      	bics	r6, r3
 8001652:	542e      	strb	r6, [r5, r0]
 8001654:	e7fb      	b.n	800164e <ssd1306_DrawPixel+0x36>
 8001656:	46c0      	nop			; (mov r8, r8)
 8001658:	20000072 	.word	0x20000072
 800165c:	20000078 	.word	0x20000078

08001660 <ssd1306_WriteChar>:
//	ch 		=> char om weg te schrijven
//	Font 	=> Font waarmee we gaan schrijven
//	color 	=> Black or White
//
char ssd1306_WriteChar(char ch, FontDef Font, SSD1306_COLOR color)
{
 8001660:	b5f0      	push	{r4, r5, r6, r7, lr}
 8001662:	b089      	sub	sp, #36	; 0x24
 8001664:	9303      	str	r3, [sp, #12]
 8001666:	b2cb      	uxtb	r3, r1
 8001668:	9301      	str	r3, [sp, #4]
	uint32_t i, b, j;
	
	// Kijken of er nog plaats is op deze lijn
	if (SSD1306_WIDTH <= (SSD1306.CurrentX + Font.FontWidth) ||
 800166a:	4b23      	ldr	r3, [pc, #140]	; (80016f8 <ssd1306_WriteChar+0x98>)
{
 800166c:	9106      	str	r1, [sp, #24]
 800166e:	9207      	str	r2, [sp, #28]
	if (SSD1306_WIDTH <= (SSD1306.CurrentX + Font.FontWidth) ||
 8001670:	9901      	ldr	r1, [sp, #4]
 8001672:	881a      	ldrh	r2, [r3, #0]
{
 8001674:	0006      	movs	r6, r0
	if (SSD1306_WIDTH <= (SSD1306.CurrentX + Font.FontWidth) ||
 8001676:	9200      	str	r2, [sp, #0]
 8001678:	1852      	adds	r2, r2, r1
 800167a:	2a7f      	cmp	r2, #127	; 0x7f
 800167c:	dc3a      	bgt.n	80016f4 <ssd1306_WriteChar+0x94>
 800167e:	aa06      	add	r2, sp, #24
 8001680:	7852      	ldrb	r2, [r2, #1]
 8001682:	9202      	str	r2, [sp, #8]
		SSD1306_HEIGHT <= (SSD1306.CurrentY + Font.FontHeight))
 8001684:	885c      	ldrh	r4, [r3, #2]
 8001686:	18a3      	adds	r3, r4, r2
	if (SSD1306_WIDTH <= (SSD1306.CurrentX + Font.FontWidth) ||
 8001688:	2b3f      	cmp	r3, #63	; 0x3f
 800168a:	dc33      	bgt.n	80016f4 <ssd1306_WriteChar+0x94>
	}
	
	// We gaan door het font
	for (i = 0; i < Font.FontHeight; i++)
	{
		b = Font.data[(ch - 32) * Font.FontHeight + i];
 800168c:	0033      	movs	r3, r6
	for (i = 0; i < Font.FontHeight; i++)
 800168e:	2700      	movs	r7, #0
		b = Font.data[(ch - 32) * Font.FontHeight + i];
 8001690:	3b20      	subs	r3, #32
 8001692:	435a      	muls	r2, r3
 8001694:	b2e4      	uxtb	r4, r4
 8001696:	9204      	str	r2, [sp, #16]
	for (i = 0; i < Font.FontHeight; i++)
 8001698:	9b02      	ldr	r3, [sp, #8]
 800169a:	42bb      	cmp	r3, r7
 800169c:	d808      	bhi.n	80016b0 <ssd1306_WriteChar+0x50>
			}
		}
	}
	
	// De huidige positie is nu verplaatst
	SSD1306.CurrentX += Font.FontWidth;
 800169e:	9a01      	ldr	r2, [sp, #4]
 80016a0:	9b00      	ldr	r3, [sp, #0]
 80016a2:	4694      	mov	ip, r2
 80016a4:	4a14      	ldr	r2, [pc, #80]	; (80016f8 <ssd1306_WriteChar+0x98>)
 80016a6:	4463      	add	r3, ip
 80016a8:	8013      	strh	r3, [r2, #0]
	
	// We geven het geschreven char terug voor validatie
	return ch;
}
 80016aa:	0030      	movs	r0, r6
 80016ac:	b009      	add	sp, #36	; 0x24
 80016ae:	bdf0      	pop	{r4, r5, r6, r7, pc}
		for (j = 0; j < Font.FontWidth; j++)
 80016b0:	2500      	movs	r5, #0
		b = Font.data[(ch - 32) * Font.FontHeight + i];
 80016b2:	9b04      	ldr	r3, [sp, #16]
 80016b4:	9a07      	ldr	r2, [sp, #28]
 80016b6:	19db      	adds	r3, r3, r7
 80016b8:	005b      	lsls	r3, r3, #1
 80016ba:	5a9b      	ldrh	r3, [r3, r2]
 80016bc:	9305      	str	r3, [sp, #20]
		for (j = 0; j < Font.FontWidth; j++)
 80016be:	9b01      	ldr	r3, [sp, #4]
 80016c0:	42ab      	cmp	r3, r5
 80016c2:	d803      	bhi.n	80016cc <ssd1306_WriteChar+0x6c>
 80016c4:	3401      	adds	r4, #1
	for (i = 0; i < Font.FontHeight; i++)
 80016c6:	3701      	adds	r7, #1
 80016c8:	b2e4      	uxtb	r4, r4
 80016ca:	e7e5      	b.n	8001698 <ssd1306_WriteChar+0x38>
 80016cc:	9b00      	ldr	r3, [sp, #0]
			if ((b << j) & 0x8000) 
 80016ce:	2280      	movs	r2, #128	; 0x80
 80016d0:	18e8      	adds	r0, r5, r3
 80016d2:	9b05      	ldr	r3, [sp, #20]
 80016d4:	0212      	lsls	r2, r2, #8
 80016d6:	40ab      	lsls	r3, r5
 80016d8:	b2c0      	uxtb	r0, r0
 80016da:	4213      	tst	r3, r2
 80016dc:	d005      	beq.n	80016ea <ssd1306_WriteChar+0x8a>
				ssd1306_DrawPixel(SSD1306.CurrentX + j, (SSD1306.CurrentY + i), (SSD1306_COLOR) color);
 80016de:	9a03      	ldr	r2, [sp, #12]
				ssd1306_DrawPixel(SSD1306.CurrentX + j, (SSD1306.CurrentY + i), (SSD1306_COLOR)!color);
 80016e0:	0021      	movs	r1, r4
 80016e2:	f7ff ff99 	bl	8001618 <ssd1306_DrawPixel>
		for (j = 0; j < Font.FontWidth; j++)
 80016e6:	3501      	adds	r5, #1
 80016e8:	e7e9      	b.n	80016be <ssd1306_WriteChar+0x5e>
				ssd1306_DrawPixel(SSD1306.CurrentX + j, (SSD1306.CurrentY + i), (SSD1306_COLOR)!color);
 80016ea:	9a03      	ldr	r2, [sp, #12]
 80016ec:	4253      	negs	r3, r2
 80016ee:	415a      	adcs	r2, r3
 80016f0:	b2d2      	uxtb	r2, r2
 80016f2:	e7f5      	b.n	80016e0 <ssd1306_WriteChar+0x80>
		return 0;
 80016f4:	2600      	movs	r6, #0
 80016f6:	e7d8      	b.n	80016aa <ssd1306_WriteChar+0x4a>
 80016f8:	20000072 	.word	0x20000072

080016fc <ssd1306_WriteString>:
// 	str => string om op het scherm te schrijven
//	Font => Het font dat gebruikt moet worden
//	color => Black or White
//
char ssd1306_WriteString(const char* str, FontDef Font, SSD1306_COLOR color)
{
 80016fc:	b537      	push	{r0, r1, r2, r4, r5, lr}
 80016fe:	0004      	movs	r4, r0
 8001700:	001d      	movs	r5, r3
 8001702:	9100      	str	r1, [sp, #0]
 8001704:	9201      	str	r2, [sp, #4]
	// We schrijven alle char tot een nulbyte
	while (*str) 
 8001706:	7820      	ldrb	r0, [r4, #0]
 8001708:	2800      	cmp	r0, #0
 800170a:	d100      	bne.n	800170e <ssd1306_WriteString+0x12>
		str++;
	}
	
	// Alles gelukt, we sturen dus 0 terug
	return *str;
}
 800170c:	bd3e      	pop	{r1, r2, r3, r4, r5, pc}
		if (ssd1306_WriteChar(*str, Font, color) != *str)
 800170e:	002b      	movs	r3, r5
 8001710:	9900      	ldr	r1, [sp, #0]
 8001712:	9a01      	ldr	r2, [sp, #4]
 8001714:	f7ff ffa4 	bl	8001660 <ssd1306_WriteChar>
 8001718:	0003      	movs	r3, r0
 800171a:	7820      	ldrb	r0, [r4, #0]
 800171c:	4283      	cmp	r3, r0
 800171e:	d1f5      	bne.n	800170c <ssd1306_WriteString+0x10>
		str++;
 8001720:	3401      	adds	r4, #1
 8001722:	e7f0      	b.n	8001706 <ssd1306_WriteString+0xa>

08001724 <ssd1306_SetCursor>:
//	Zet de cursor op een coordinaat
//
void ssd1306_SetCursor(uint8_t x, uint8_t y) 
{
	/* Set write pointers */
	SSD1306.CurrentX = x;
 8001724:	4b01      	ldr	r3, [pc, #4]	; (800172c <ssd1306_SetCursor+0x8>)
 8001726:	8018      	strh	r0, [r3, #0]
	SSD1306.CurrentY = y;
 8001728:	8059      	strh	r1, [r3, #2]
}
 800172a:	4770      	bx	lr
 800172c:	20000072 	.word	0x20000072

08001730 <HAL_MspInit>:
{
  /* USER CODE BEGIN MspInit 0 */

  /* USER CODE END MspInit 0 */

  __HAL_RCC_SYSCFG_CLK_ENABLE();
 8001730:	2001      	movs	r0, #1
 8001732:	4b0a      	ldr	r3, [pc, #40]	; (800175c <HAL_MspInit+0x2c>)
{
 8001734:	b082      	sub	sp, #8
  __HAL_RCC_SYSCFG_CLK_ENABLE();
 8001736:	6999      	ldr	r1, [r3, #24]
 8001738:	4301      	orrs	r1, r0
 800173a:	6199      	str	r1, [r3, #24]
  __HAL_RCC_PWR_CLK_ENABLE();
 800173c:	2180      	movs	r1, #128	; 0x80
  __HAL_RCC_SYSCFG_CLK_ENABLE();
 800173e:	699a      	ldr	r2, [r3, #24]
  __HAL_RCC_PWR_CLK_ENABLE();
 8001740:	0549      	lsls	r1, r1, #21
  __HAL_RCC_SYSCFG_CLK_ENABLE();
 8001742:	4002      	ands	r2, r0
 8001744:	9200      	str	r2, [sp, #0]
 8001746:	9a00      	ldr	r2, [sp, #0]
  __HAL_RCC_PWR_CLK_ENABLE();
 8001748:	69da      	ldr	r2, [r3, #28]
 800174a:	430a      	orrs	r2, r1
 800174c:	61da      	str	r2, [r3, #28]
 800174e:	69db      	ldr	r3, [r3, #28]
 8001750:	400b      	ands	r3, r1
 8001752:	9301      	str	r3, [sp, #4]
 8001754:	9b01      	ldr	r3, [sp, #4]
  /* System interrupt init*/

  /* USER CODE BEGIN MspInit 1 */

  /* USER CODE END MspInit 1 */
}
 8001756:	b002      	add	sp, #8
 8001758:	4770      	bx	lr
 800175a:	46c0      	nop			; (mov r8, r8)
 800175c:	40021000 	.word	0x40021000

08001760 <NMI_Handler>:

  /* USER CODE END NonMaskableInt_IRQn 0 */
  /* USER CODE BEGIN NonMaskableInt_IRQn 1 */

  /* USER CODE END NonMaskableInt_IRQn 1 */
}
 8001760:	4770      	bx	lr

08001762 <HardFault_Handler>:

/**
  * @brief This function handles Hard fault interrupt.
  */
void HardFault_Handler(void)
{
 8001762:	e7fe      	b.n	8001762 <HardFault_Handler>

08001764 <SVC_Handler>:
 8001764:	4770      	bx	lr

08001766 <PendSV_Handler>:
 8001766:	4770      	bx	lr

08001768 <SysTick_Handler>:

/**
  * @brief This function handles System tick timer.
  */
void SysTick_Handler(void)
{
 8001768:	b510      	push	{r4, lr}
  /* USER CODE BEGIN SysTick_IRQn 0 */

  /* USER CODE END SysTick_IRQn 0 */
  HAL_IncTick();
 800176a:	f000 f863 	bl	8001834 <HAL_IncTick>
  /* USER CODE BEGIN SysTick_IRQn 1 */
  Systic_Callback();
 800176e:	f7ff fddb 	bl	8001328 <Systic_Callback>
  /* USER CODE END SysTick_IRQn 1 */
}
 8001772:	bd10      	pop	{r4, pc}

08001774 <SystemInit>:
                         before branch to main program. This call is made inside
                         the "startup_stm32f0xx.s" file.
                         User can setups the default system clock (System clock source, PLL Multiplier
                         and Divider factors, AHB/APBx prescalers and Flash settings).
   */
}
 8001774:	4770      	bx	lr
	...

08001778 <Reset_Handler>:

  .section .text.Reset_Handler
  .weak Reset_Handler
  .type Reset_Handler, %function
Reset_Handler:
  ldr   r0, =_estack
 8001778:	480d      	ldr	r0, [pc, #52]	; (80017b0 <LoopForever+0x2>)
  mov   sp, r0          /* set stack pointer */
 800177a:	4685      	mov	sp, r0

/* Copy the data segment initializers from flash to SRAM */
  ldr r0, =_sdata
 800177c:	480d      	ldr	r0, [pc, #52]	; (80017b4 <LoopForever+0x6>)
  ldr r1, =_edata
 800177e:	490e      	ldr	r1, [pc, #56]	; (80017b8 <LoopForever+0xa>)
  ldr r2, =_sidata
 8001780:	4a0e      	ldr	r2, [pc, #56]	; (80017bc <LoopForever+0xe>)
  movs r3, #0
 8001782:	2300      	movs	r3, #0
  b LoopCopyDataInit
 8001784:	e002      	b.n	800178c <LoopCopyDataInit>

08001786 <CopyDataInit>:

CopyDataInit:
  ldr r4, [r2, r3]
 8001786:	58d4      	ldr	r4, [r2, r3]
  str r4, [r0, r3]
 8001788:	50c4      	str	r4, [r0, r3]
  adds r3, r3, #4
 800178a:	3304      	adds	r3, #4

0800178c <LoopCopyDataInit>:

LoopCopyDataInit:
  adds r4, r0, r3
 800178c:	18c4      	adds	r4, r0, r3
  cmp r4, r1
 800178e:	428c      	cmp	r4, r1
  bcc CopyDataInit
 8001790:	d3f9      	bcc.n	8001786 <CopyDataInit>
  
/* Zero fill the bss segment. */
  ldr r2, =_sbss
 8001792:	4a0b      	ldr	r2, [pc, #44]	; (80017c0 <LoopForever+0x12>)
  ldr r4, =_ebss
 8001794:	4c0b      	ldr	r4, [pc, #44]	; (80017c4 <LoopForever+0x16>)
  movs r3, #0
 8001796:	2300      	movs	r3, #0
  b LoopFillZerobss
 8001798:	e001      	b.n	800179e <LoopFillZerobss>

0800179a <FillZerobss>:

FillZerobss:
  str  r3, [r2]
 800179a:	6013      	str	r3, [r2, #0]
  adds r2, r2, #4
 800179c:	3204      	adds	r2, #4

0800179e <LoopFillZerobss>:

LoopFillZerobss:
  cmp r2, r4
 800179e:	42a2      	cmp	r2, r4
  bcc FillZerobss
 80017a0:	d3fb      	bcc.n	800179a <FillZerobss>

/* Call the clock system intitialization function.*/
  bl  SystemInit
 80017a2:	f7ff ffe7 	bl	8001774 <SystemInit>
/* Call static constructors */
  bl __libc_init_array
 80017a6:	f000 fe1f 	bl	80023e8 <__libc_init_array>
/* Call the application's entry point.*/
  bl main
 80017aa:	f7fe fed9 	bl	8000560 <main>

080017ae <LoopForever>:

LoopForever:
    b LoopForever
 80017ae:	e7fe      	b.n	80017ae <LoopForever>
  ldr   r0, =_estack
 80017b0:	20001000 	.word	0x20001000
  ldr r0, =_sdata
 80017b4:	20000000 	.word	0x20000000
  ldr r1, =_edata
 80017b8:	20000030 	.word	0x20000030
  ldr r2, =_sidata
 80017bc:	08003afc 	.word	0x08003afc
  ldr r2, =_sbss
 80017c0:	20000030 	.word	0x20000030
  ldr r4, =_ebss
 80017c4:	20000544 	.word	0x20000544

080017c8 <ADC1_IRQHandler>:
 * @retval : None
*/
    .section .text.Default_Handler,"ax",%progbits
Default_Handler:
Infinite_Loop:
  b Infinite_Loop
 80017c8:	e7fe      	b.n	80017c8 <ADC1_IRQHandler>
	...

080017cc <HAL_InitTick>:
  *       implementation  in user file.
  * @param TickPriority Tick interrupt priority.
  * @retval HAL status
  */
__weak HAL_StatusTypeDef HAL_InitTick(uint32_t TickPriority)
{
 80017cc:	b570      	push	{r4, r5, r6, lr}
 80017ce:	0005      	movs	r5, r0
  /*Configure the SysTick to have interrupt in 1ms time basis*/
  if (HAL_SYSTICK_Config(SystemCoreClock / (1000U / uwTickFreq)) > 0U)
 80017d0:	20fa      	movs	r0, #250	; 0xfa
 80017d2:	4b0d      	ldr	r3, [pc, #52]	; (8001808 <HAL_InitTick+0x3c>)
 80017d4:	0080      	lsls	r0, r0, #2
 80017d6:	7819      	ldrb	r1, [r3, #0]
 80017d8:	f7fe fca0 	bl	800011c <__udivsi3>
 80017dc:	4b0b      	ldr	r3, [pc, #44]	; (800180c <HAL_InitTick+0x40>)
 80017de:	0001      	movs	r1, r0
 80017e0:	6818      	ldr	r0, [r3, #0]
 80017e2:	f7fe fc9b 	bl	800011c <__udivsi3>
 80017e6:	f000 fa71 	bl	8001ccc <HAL_SYSTICK_Config>
 80017ea:	0004      	movs	r4, r0
  {
    return HAL_ERROR;
 80017ec:	2001      	movs	r0, #1
  if (HAL_SYSTICK_Config(SystemCoreClock / (1000U / uwTickFreq)) > 0U)
 80017ee:	2c00      	cmp	r4, #0
 80017f0:	d109      	bne.n	8001806 <HAL_InitTick+0x3a>
  }

  /* Configure the SysTick IRQ priority */
  if (TickPriority < (1UL << __NVIC_PRIO_BITS))
 80017f2:	2d03      	cmp	r5, #3
 80017f4:	d807      	bhi.n	8001806 <HAL_InitTick+0x3a>
  {
    HAL_NVIC_SetPriority(SysTick_IRQn, TickPriority, 0U);
 80017f6:	3802      	subs	r0, #2
 80017f8:	0022      	movs	r2, r4
 80017fa:	0029      	movs	r1, r5
 80017fc:	f000 fa3c 	bl	8001c78 <HAL_NVIC_SetPriority>
    uwTickPrio = TickPriority;
 8001800:	0020      	movs	r0, r4
 8001802:	4b03      	ldr	r3, [pc, #12]	; (8001810 <HAL_InitTick+0x44>)
 8001804:	601d      	str	r5, [r3, #0]
    return HAL_ERROR;
  }

   /* Return function status */
  return HAL_OK;
}
 8001806:	bd70      	pop	{r4, r5, r6, pc}
 8001808:	20000028 	.word	0x20000028
 800180c:	20000024 	.word	0x20000024
 8001810:	2000002c 	.word	0x2000002c

08001814 <HAL_Init>:
  __HAL_FLASH_PREFETCH_BUFFER_ENABLE();
 8001814:	2310      	movs	r3, #16
 8001816:	4a06      	ldr	r2, [pc, #24]	; (8001830 <HAL_Init+0x1c>)
{
 8001818:	b510      	push	{r4, lr}
  __HAL_FLASH_PREFETCH_BUFFER_ENABLE();
 800181a:	6811      	ldr	r1, [r2, #0]
  HAL_InitTick(TICK_INT_PRIORITY);
 800181c:	2000      	movs	r0, #0
  __HAL_FLASH_PREFETCH_BUFFER_ENABLE();
 800181e:	430b      	orrs	r3, r1
 8001820:	6013      	str	r3, [r2, #0]
  HAL_InitTick(TICK_INT_PRIORITY);
 8001822:	f7ff ffd3 	bl	80017cc <HAL_InitTick>
  HAL_MspInit();
 8001826:	f7ff ff83 	bl	8001730 <HAL_MspInit>
}
 800182a:	2000      	movs	r0, #0
 800182c:	bd10      	pop	{r4, pc}
 800182e:	46c0      	nop			; (mov r8, r8)
 8001830:	40022000 	.word	0x40022000

08001834 <HAL_IncTick>:
  *       implementations in user file.
  * @retval None
  */
__weak void HAL_IncTick(void)
{
  uwTick += uwTickFreq;
 8001834:	4a03      	ldr	r2, [pc, #12]	; (8001844 <HAL_IncTick+0x10>)
 8001836:	4b04      	ldr	r3, [pc, #16]	; (8001848 <HAL_IncTick+0x14>)
 8001838:	6811      	ldr	r1, [r2, #0]
 800183a:	781b      	ldrb	r3, [r3, #0]
 800183c:	185b      	adds	r3, r3, r1
 800183e:	6013      	str	r3, [r2, #0]
}
 8001840:	4770      	bx	lr
 8001842:	46c0      	nop			; (mov r8, r8)
 8001844:	20000540 	.word	0x20000540
 8001848:	20000028 	.word	0x20000028

0800184c <HAL_GetTick>:
  *       implementations in user file.
  * @retval tick value
  */
__weak uint32_t HAL_GetTick(void)
{
  return uwTick;
 800184c:	4b01      	ldr	r3, [pc, #4]	; (8001854 <HAL_GetTick+0x8>)
 800184e:	6818      	ldr	r0, [r3, #0]
}
 8001850:	4770      	bx	lr
 8001852:	46c0      	nop			; (mov r8, r8)
 8001854:	20000540 	.word	0x20000540

08001858 <HAL_Delay>:
  *       implementations in user file.
  * @param Delay specifies the delay time length, in milliseconds.
  * @retval None
  */
__weak void HAL_Delay(uint32_t Delay)
{
 8001858:	b570      	push	{r4, r5, r6, lr}
 800185a:	0004      	movs	r4, r0
  uint32_t tickstart = HAL_GetTick();
 800185c:	f7ff fff6 	bl	800184c <HAL_GetTick>
 8001860:	0005      	movs	r5, r0
  uint32_t wait = Delay;
  
  /* Add a freq to guarantee minimum wait */
  if (wait < HAL_MAX_DELAY)
 8001862:	1c63      	adds	r3, r4, #1
 8001864:	d002      	beq.n	800186c <HAL_Delay+0x14>
  {
    wait += (uint32_t)(uwTickFreq);
 8001866:	4b04      	ldr	r3, [pc, #16]	; (8001878 <HAL_Delay+0x20>)
 8001868:	781b      	ldrb	r3, [r3, #0]
 800186a:	18e4      	adds	r4, r4, r3
  }
  
  while((HAL_GetTick() - tickstart) < wait)
 800186c:	f7ff ffee 	bl	800184c <HAL_GetTick>
 8001870:	1b40      	subs	r0, r0, r5
 8001872:	42a0      	cmp	r0, r4
 8001874:	d3fa      	bcc.n	800186c <HAL_Delay+0x14>
  {
  }
}
 8001876:	bd70      	pop	{r4, r5, r6, pc}
 8001878:	20000028 	.word	0x20000028

0800187c <ADC_Enable>:
  * @retval HAL status.
  */
static HAL_StatusTypeDef ADC_Enable(ADC_HandleTypeDef* hadc)
{
  uint32_t tickstart = 0U;
  __IO uint32_t wait_loop_index = 0U;
 800187c:	2300      	movs	r3, #0
{
 800187e:	b573      	push	{r0, r1, r4, r5, r6, lr}
  
  /* ADC enable and wait for ADC ready (in case of ADC is disabled or         */
  /* enabling phase not yet completed: flag ADC ready not yet set).           */
  /* Timeout implemented to not be stuck if ADC cannot be enabled (possible   */
  /* causes: ADC clock not running, ...).                                     */
  if (ADC_IS_ENABLE(hadc) == RESET)
 8001880:	2103      	movs	r1, #3
  __IO uint32_t wait_loop_index = 0U;
 8001882:	9301      	str	r3, [sp, #4]
  if (ADC_IS_ENABLE(hadc) == RESET)
 8001884:	6803      	ldr	r3, [r0, #0]
{
 8001886:	0004      	movs	r4, r0
  if (ADC_IS_ENABLE(hadc) == RESET)
 8001888:	689a      	ldr	r2, [r3, #8]
 800188a:	400a      	ands	r2, r1
 800188c:	2a01      	cmp	r2, #1
 800188e:	d107      	bne.n	80018a0 <ADC_Enable+0x24>
 8001890:	6819      	ldr	r1, [r3, #0]
 8001892:	4211      	tst	r1, r2
 8001894:	d001      	beq.n	800189a <ADC_Enable+0x1e>
    }   
    
  }
   
  /* Return HAL status */
  return HAL_OK;
 8001896:	2000      	movs	r0, #0
}
 8001898:	bd76      	pop	{r1, r2, r4, r5, r6, pc}
  if (ADC_IS_ENABLE(hadc) == RESET)
 800189a:	68da      	ldr	r2, [r3, #12]
 800189c:	0412      	lsls	r2, r2, #16
 800189e:	d4fa      	bmi.n	8001896 <ADC_Enable+0x1a>
    if (ADC_ENABLING_CONDITIONS(hadc) == RESET)
 80018a0:	6899      	ldr	r1, [r3, #8]
 80018a2:	4a19      	ldr	r2, [pc, #100]	; (8001908 <ADC_Enable+0x8c>)
 80018a4:	4211      	tst	r1, r2
 80018a6:	d008      	beq.n	80018ba <ADC_Enable+0x3e>
      SET_BIT(hadc->State, HAL_ADC_STATE_ERROR_INTERNAL);
 80018a8:	2310      	movs	r3, #16
      SET_BIT(hadc->ErrorCode, HAL_ADC_ERROR_INTERNAL);
 80018aa:	2001      	movs	r0, #1
      SET_BIT(hadc->State, HAL_ADC_STATE_ERROR_INTERNAL);
 80018ac:	6ba2      	ldr	r2, [r4, #56]	; 0x38
 80018ae:	4313      	orrs	r3, r2
 80018b0:	63a3      	str	r3, [r4, #56]	; 0x38
      SET_BIT(hadc->ErrorCode, HAL_ADC_ERROR_INTERNAL);
 80018b2:	6be3      	ldr	r3, [r4, #60]	; 0x3c
 80018b4:	4303      	orrs	r3, r0
 80018b6:	63e3      	str	r3, [r4, #60]	; 0x3c
      return HAL_ERROR;
 80018b8:	e7ee      	b.n	8001898 <ADC_Enable+0x1c>
    __HAL_ADC_ENABLE(hadc);
 80018ba:	2201      	movs	r2, #1
 80018bc:	6899      	ldr	r1, [r3, #8]
 80018be:	430a      	orrs	r2, r1
 80018c0:	609a      	str	r2, [r3, #8]
    wait_loop_index = (ADC_STAB_DELAY_US * (SystemCoreClock / 1000000U));
 80018c2:	4b12      	ldr	r3, [pc, #72]	; (800190c <ADC_Enable+0x90>)
 80018c4:	4912      	ldr	r1, [pc, #72]	; (8001910 <ADC_Enable+0x94>)
 80018c6:	6818      	ldr	r0, [r3, #0]
 80018c8:	f7fe fc28 	bl	800011c <__udivsi3>
 80018cc:	9001      	str	r0, [sp, #4]
    while(wait_loop_index != 0U)
 80018ce:	9b01      	ldr	r3, [sp, #4]
 80018d0:	2b00      	cmp	r3, #0
 80018d2:	d115      	bne.n	8001900 <ADC_Enable+0x84>
    tickstart = HAL_GetTick();
 80018d4:	f7ff ffba 	bl	800184c <HAL_GetTick>
    while(__HAL_ADC_GET_FLAG(hadc, ADC_FLAG_RDY) == RESET)
 80018d8:	2501      	movs	r5, #1
    tickstart = HAL_GetTick();
 80018da:	0006      	movs	r6, r0
    while(__HAL_ADC_GET_FLAG(hadc, ADC_FLAG_RDY) == RESET)
 80018dc:	6823      	ldr	r3, [r4, #0]
 80018de:	681b      	ldr	r3, [r3, #0]
 80018e0:	422b      	tst	r3, r5
 80018e2:	d1d8      	bne.n	8001896 <ADC_Enable+0x1a>
      if((HAL_GetTick() - tickstart) > ADC_ENABLE_TIMEOUT)
 80018e4:	f7ff ffb2 	bl	800184c <HAL_GetTick>
 80018e8:	1b80      	subs	r0, r0, r6
 80018ea:	2802      	cmp	r0, #2
 80018ec:	d9f6      	bls.n	80018dc <ADC_Enable+0x60>
        SET_BIT(hadc->State, HAL_ADC_STATE_ERROR_INTERNAL);
 80018ee:	2310      	movs	r3, #16
 80018f0:	6ba2      	ldr	r2, [r4, #56]	; 0x38
        return HAL_ERROR;
 80018f2:	2001      	movs	r0, #1
        SET_BIT(hadc->State, HAL_ADC_STATE_ERROR_INTERNAL);
 80018f4:	4313      	orrs	r3, r2
 80018f6:	63a3      	str	r3, [r4, #56]	; 0x38
        SET_BIT(hadc->ErrorCode, HAL_ADC_ERROR_INTERNAL);
 80018f8:	6be3      	ldr	r3, [r4, #60]	; 0x3c
 80018fa:	432b      	orrs	r3, r5
 80018fc:	63e3      	str	r3, [r4, #60]	; 0x3c
        return HAL_ERROR;
 80018fe:	e7cb      	b.n	8001898 <ADC_Enable+0x1c>
      wait_loop_index--;
 8001900:	9b01      	ldr	r3, [sp, #4]
 8001902:	3b01      	subs	r3, #1
 8001904:	9301      	str	r3, [sp, #4]
 8001906:	e7e2      	b.n	80018ce <ADC_Enable+0x52>
 8001908:	80000017 	.word	0x80000017
 800190c:	20000024 	.word	0x20000024
 8001910:	000f4240 	.word	0x000f4240

08001914 <HAL_ADC_Init>:
{
 8001914:	b5f8      	push	{r3, r4, r5, r6, r7, lr}
 8001916:	0004      	movs	r4, r0
    return HAL_ERROR;
 8001918:	2001      	movs	r0, #1
  if(hadc == NULL)
 800191a:	2c00      	cmp	r4, #0
 800191c:	d07e      	beq.n	8001a1c <HAL_ADC_Init+0x108>
  if (hadc->State == HAL_ADC_STATE_RESET)
 800191e:	6ba3      	ldr	r3, [r4, #56]	; 0x38
 8001920:	2b00      	cmp	r3, #0
 8001922:	d106      	bne.n	8001932 <HAL_ADC_Init+0x1e>
    hadc->Lock = HAL_UNLOCKED;
 8001924:	0022      	movs	r2, r4
 8001926:	3234      	adds	r2, #52	; 0x34
    ADC_CLEAR_ERRORCODE(hadc);
 8001928:	63e3      	str	r3, [r4, #60]	; 0x3c
    HAL_ADC_MspInit(hadc);
 800192a:	0020      	movs	r0, r4
    hadc->Lock = HAL_UNLOCKED;
 800192c:	7013      	strb	r3, [r2, #0]
    HAL_ADC_MspInit(hadc);
 800192e:	f7fe fcb9 	bl	80002a4 <HAL_ADC_MspInit>
  if (HAL_IS_BIT_CLR(hadc->State, HAL_ADC_STATE_ERROR_INTERNAL) &&
 8001932:	6ba3      	ldr	r3, [r4, #56]	; 0x38
 8001934:	06db      	lsls	r3, r3, #27
 8001936:	d500      	bpl.n	800193a <HAL_ADC_Init+0x26>
 8001938:	e085      	b.n	8001a46 <HAL_ADC_Init+0x132>
      (ADC_IS_CONVERSION_ONGOING_REGULAR(hadc) == RESET)          )
 800193a:	2204      	movs	r2, #4
 800193c:	6823      	ldr	r3, [r4, #0]
 800193e:	6898      	ldr	r0, [r3, #8]
 8001940:	4010      	ands	r0, r2
      (tmp_hal_status == HAL_OK)                                &&
 8001942:	d000      	beq.n	8001946 <HAL_ADC_Init+0x32>
 8001944:	e07f      	b.n	8001a46 <HAL_ADC_Init+0x132>
    ADC_STATE_CLR_SET(hadc->State,
 8001946:	6ba2      	ldr	r2, [r4, #56]	; 0x38
 8001948:	4942      	ldr	r1, [pc, #264]	; (8001a54 <HAL_ADC_Init+0x140>)
 800194a:	4011      	ands	r1, r2
 800194c:	2202      	movs	r2, #2
 800194e:	430a      	orrs	r2, r1
    if (ADC_IS_ENABLE(hadc) == RESET)
 8001950:	2103      	movs	r1, #3
    ADC_STATE_CLR_SET(hadc->State,
 8001952:	63a2      	str	r2, [r4, #56]	; 0x38
    if (ADC_IS_ENABLE(hadc) == RESET)
 8001954:	689a      	ldr	r2, [r3, #8]
 8001956:	400a      	ands	r2, r1
 8001958:	2a01      	cmp	r2, #1
 800195a:	d105      	bne.n	8001968 <HAL_ADC_Init+0x54>
 800195c:	6819      	ldr	r1, [r3, #0]
 800195e:	4211      	tst	r1, r2
 8001960:	d10e      	bne.n	8001980 <HAL_ADC_Init+0x6c>
 8001962:	68da      	ldr	r2, [r3, #12]
 8001964:	0412      	lsls	r2, r2, #16
 8001966:	d40b      	bmi.n	8001980 <HAL_ADC_Init+0x6c>
      MODIFY_REG(hadc->Instance->CFGR1,
 8001968:	2118      	movs	r1, #24
 800196a:	68da      	ldr	r2, [r3, #12]
 800196c:	438a      	bics	r2, r1
 800196e:	68a1      	ldr	r1, [r4, #8]
 8001970:	430a      	orrs	r2, r1
 8001972:	60da      	str	r2, [r3, #12]
      MODIFY_REG(hadc->Instance->CFGR2    ,
 8001974:	6919      	ldr	r1, [r3, #16]
 8001976:	6862      	ldr	r2, [r4, #4]
 8001978:	0089      	lsls	r1, r1, #2
 800197a:	0889      	lsrs	r1, r1, #2
 800197c:	4311      	orrs	r1, r2
 800197e:	6119      	str	r1, [r3, #16]
    hadc->Instance->CFGR1 &= ~( ADC_CFGR1_DISCEN  |
 8001980:	68da      	ldr	r2, [r3, #12]
 8001982:	4935      	ldr	r1, [pc, #212]	; (8001a58 <HAL_ADC_Init+0x144>)
 8001984:	400a      	ands	r2, r1
 8001986:	60da      	str	r2, [r3, #12]
    tmpCFGR1 |= (ADC_CFGR1_AUTOWAIT((uint32_t)hadc->Init.LowPowerAutoWait)        |
 8001988:	7e25      	ldrb	r5, [r4, #24]
                 ADC_CFGR1_AUTOOFF((uint32_t)hadc->Init.LowPowerAutoPowerOff)     |
 800198a:	7e62      	ldrb	r2, [r4, #25]
    tmpCFGR1 |= (ADC_CFGR1_AUTOWAIT((uint32_t)hadc->Init.LowPowerAutoWait)        |
 800198c:	03ad      	lsls	r5, r5, #14
                 ADC_CFGR1_AUTOOFF((uint32_t)hadc->Init.LowPowerAutoPowerOff)     |
 800198e:	03d2      	lsls	r2, r2, #15
    tmpCFGR1 |= (ADC_CFGR1_AUTOWAIT((uint32_t)hadc->Init.LowPowerAutoWait)        |
 8001990:	4315      	orrs	r5, r2
                 ADC_CFGR1_OVERRUN(hadc->Init.Overrun)                            |
 8001992:	6aa2      	ldr	r2, [r4, #40]	; 0x28
                 ADC_CFGR1_CONTINUOUS((uint32_t)hadc->Init.ContinuousConvMode)    |
 8001994:	7ea1      	ldrb	r1, [r4, #26]
                 ADC_CFGR1_OVERRUN(hadc->Init.Overrun)                            |
 8001996:	3a01      	subs	r2, #1
 8001998:	1e56      	subs	r6, r2, #1
 800199a:	41b2      	sbcs	r2, r6
 800199c:	0316      	lsls	r6, r2, #12
 800199e:	68e2      	ldr	r2, [r4, #12]
                 ADC_CFGR1_CONTINUOUS((uint32_t)hadc->Init.ContinuousConvMode)    |
 80019a0:	034f      	lsls	r7, r1, #13
 80019a2:	4315      	orrs	r5, r2
                 ADC_SCANDIR(hadc->Init.ScanConvMode)                             |
 80019a4:	6922      	ldr	r2, [r4, #16]
 80019a6:	432f      	orrs	r7, r5
 80019a8:	2a02      	cmp	r2, #2
 80019aa:	d100      	bne.n	80019ae <HAL_ADC_Init+0x9a>
 80019ac:	2004      	movs	r0, #4
                 ADC_CFGR1_DMACONTREQ((uint32_t)hadc->Init.DMAContinuousRequests)  );
 80019ae:	1d62      	adds	r2, r4, #5
 80019b0:	7fd2      	ldrb	r2, [r2, #31]
 80019b2:	0052      	lsls	r2, r2, #1
                 ADC_SCANDIR(hadc->Init.ScanConvMode)                             |
 80019b4:	433a      	orrs	r2, r7
 80019b6:	4332      	orrs	r2, r6
 80019b8:	4302      	orrs	r2, r0
    if (hadc->Init.DiscontinuousConvMode == ENABLE)
 80019ba:	7ee0      	ldrb	r0, [r4, #27]
 80019bc:	2801      	cmp	r0, #1
 80019be:	d104      	bne.n	80019ca <HAL_ADC_Init+0xb6>
      if (hadc->Init.ContinuousConvMode == DISABLE)
 80019c0:	2900      	cmp	r1, #0
 80019c2:	d12c      	bne.n	8001a1e <HAL_ADC_Init+0x10a>
        tmpCFGR1 |= ADC_CFGR1_DISCEN;
 80019c4:	2180      	movs	r1, #128	; 0x80
 80019c6:	0249      	lsls	r1, r1, #9
 80019c8:	430a      	orrs	r2, r1
    if (hadc->Init.ExternalTrigConv != ADC_SOFTWARE_START)
 80019ca:	20c2      	movs	r0, #194	; 0xc2
 80019cc:	69e1      	ldr	r1, [r4, #28]
 80019ce:	30ff      	adds	r0, #255	; 0xff
 80019d0:	4281      	cmp	r1, r0
 80019d2:	d002      	beq.n	80019da <HAL_ADC_Init+0xc6>
      tmpCFGR1 |= ( hadc->Init.ExternalTrigConv    |
 80019d4:	6a20      	ldr	r0, [r4, #32]
 80019d6:	4301      	orrs	r1, r0
 80019d8:	430a      	orrs	r2, r1
    if (IS_ADC_SAMPLE_TIME(hadc->Init.SamplingTimeCommon))
 80019da:	2080      	movs	r0, #128	; 0x80
    hadc->Instance->CFGR1 |= tmpCFGR1;
 80019dc:	68d9      	ldr	r1, [r3, #12]
    if (IS_ADC_SAMPLE_TIME(hadc->Init.SamplingTimeCommon))
 80019de:	0540      	lsls	r0, r0, #21
    hadc->Instance->CFGR1 |= tmpCFGR1;
 80019e0:	4311      	orrs	r1, r2
 80019e2:	60d9      	str	r1, [r3, #12]
    if (IS_ADC_SAMPLE_TIME(hadc->Init.SamplingTimeCommon))
 80019e4:	6ae1      	ldr	r1, [r4, #44]	; 0x2c
 80019e6:	4281      	cmp	r1, r0
 80019e8:	d002      	beq.n	80019f0 <HAL_ADC_Init+0xdc>
 80019ea:	1e48      	subs	r0, r1, #1
 80019ec:	2806      	cmp	r0, #6
 80019ee:	d807      	bhi.n	8001a00 <HAL_ADC_Init+0xec>
      hadc->Instance->SMPR &= ~(ADC_SMPR_SMP);
 80019f0:	2507      	movs	r5, #7
 80019f2:	6958      	ldr	r0, [r3, #20]
      hadc->Instance->SMPR |= ADC_SMPR_SET(hadc->Init.SamplingTimeCommon);
 80019f4:	4029      	ands	r1, r5
      hadc->Instance->SMPR &= ~(ADC_SMPR_SMP);
 80019f6:	43a8      	bics	r0, r5
 80019f8:	6158      	str	r0, [r3, #20]
      hadc->Instance->SMPR |= ADC_SMPR_SET(hadc->Init.SamplingTimeCommon);
 80019fa:	6958      	ldr	r0, [r3, #20]
 80019fc:	4301      	orrs	r1, r0
 80019fe:	6159      	str	r1, [r3, #20]
    if ((hadc->Instance->CFGR1 & ~(ADC_CFGR1_AWDCH | ADC_CFGR1_AWDEN | ADC_CFGR1_AWDSGL | ADC_CFGR1_RES))
 8001a00:	68db      	ldr	r3, [r3, #12]
 8001a02:	4916      	ldr	r1, [pc, #88]	; (8001a5c <HAL_ADC_Init+0x148>)
 8001a04:	400b      	ands	r3, r1
 8001a06:	4293      	cmp	r3, r2
 8001a08:	d111      	bne.n	8001a2e <HAL_ADC_Init+0x11a>
      ADC_CLEAR_ERRORCODE(hadc);
 8001a0a:	2000      	movs	r0, #0
      ADC_STATE_CLR_SET(hadc->State,
 8001a0c:	2203      	movs	r2, #3
      ADC_CLEAR_ERRORCODE(hadc);
 8001a0e:	63e0      	str	r0, [r4, #60]	; 0x3c
      ADC_STATE_CLR_SET(hadc->State,
 8001a10:	6ba3      	ldr	r3, [r4, #56]	; 0x38
 8001a12:	4393      	bics	r3, r2
 8001a14:	001a      	movs	r2, r3
 8001a16:	2301      	movs	r3, #1
 8001a18:	4313      	orrs	r3, r2
 8001a1a:	63a3      	str	r3, [r4, #56]	; 0x38
}
 8001a1c:	bdf8      	pop	{r3, r4, r5, r6, r7, pc}
        SET_BIT(hadc->State, HAL_ADC_STATE_ERROR_CONFIG);
 8001a1e:	2120      	movs	r1, #32
 8001a20:	6ba5      	ldr	r5, [r4, #56]	; 0x38
 8001a22:	4329      	orrs	r1, r5
 8001a24:	63a1      	str	r1, [r4, #56]	; 0x38
        SET_BIT(hadc->ErrorCode, HAL_ADC_ERROR_INTERNAL);
 8001a26:	6be1      	ldr	r1, [r4, #60]	; 0x3c
 8001a28:	4308      	orrs	r0, r1
 8001a2a:	63e0      	str	r0, [r4, #60]	; 0x3c
 8001a2c:	e7cd      	b.n	80019ca <HAL_ADC_Init+0xb6>
      ADC_STATE_CLR_SET(hadc->State,
 8001a2e:	2212      	movs	r2, #18
 8001a30:	6ba3      	ldr	r3, [r4, #56]	; 0x38
      SET_BIT(hadc->ErrorCode, HAL_ADC_ERROR_INTERNAL);
 8001a32:	2001      	movs	r0, #1
      ADC_STATE_CLR_SET(hadc->State,
 8001a34:	4393      	bics	r3, r2
 8001a36:	001a      	movs	r2, r3
 8001a38:	2310      	movs	r3, #16
 8001a3a:	4313      	orrs	r3, r2
 8001a3c:	63a3      	str	r3, [r4, #56]	; 0x38
      SET_BIT(hadc->ErrorCode, HAL_ADC_ERROR_INTERNAL);
 8001a3e:	6be3      	ldr	r3, [r4, #60]	; 0x3c
 8001a40:	4303      	orrs	r3, r0
 8001a42:	63e3      	str	r3, [r4, #60]	; 0x3c
 8001a44:	e7ea      	b.n	8001a1c <HAL_ADC_Init+0x108>
    SET_BIT(hadc->State, HAL_ADC_STATE_ERROR_INTERNAL);
 8001a46:	2310      	movs	r3, #16
 8001a48:	6ba2      	ldr	r2, [r4, #56]	; 0x38
    tmp_hal_status = HAL_ERROR;
 8001a4a:	2001      	movs	r0, #1
    SET_BIT(hadc->State, HAL_ADC_STATE_ERROR_INTERNAL);
 8001a4c:	4313      	orrs	r3, r2
 8001a4e:	63a3      	str	r3, [r4, #56]	; 0x38
 8001a50:	e7e4      	b.n	8001a1c <HAL_ADC_Init+0x108>
 8001a52:	46c0      	nop			; (mov r8, r8)
 8001a54:	fffffefd 	.word	0xfffffefd
 8001a58:	fffe0219 	.word	0xfffe0219
 8001a5c:	833fffe7 	.word	0x833fffe7

08001a60 <HAL_ADC_Start>:
  if (ADC_IS_CONVERSION_ONGOING_REGULAR(hadc) == RESET)
 8001a60:	6803      	ldr	r3, [r0, #0]
{
 8001a62:	b570      	push	{r4, r5, r6, lr}
  if (ADC_IS_CONVERSION_ONGOING_REGULAR(hadc) == RESET)
 8001a64:	689b      	ldr	r3, [r3, #8]
{
 8001a66:	0004      	movs	r4, r0
    tmp_hal_status = HAL_BUSY;
 8001a68:	2002      	movs	r0, #2
  if (ADC_IS_CONVERSION_ONGOING_REGULAR(hadc) == RESET)
 8001a6a:	075b      	lsls	r3, r3, #29
 8001a6c:	d41a      	bmi.n	8001aa4 <HAL_ADC_Start+0x44>
    __HAL_LOCK(hadc);
 8001a6e:	0025      	movs	r5, r4
 8001a70:	3534      	adds	r5, #52	; 0x34
 8001a72:	782b      	ldrb	r3, [r5, #0]
 8001a74:	2b01      	cmp	r3, #1
 8001a76:	d015      	beq.n	8001aa4 <HAL_ADC_Start+0x44>
 8001a78:	2301      	movs	r3, #1
 8001a7a:	702b      	strb	r3, [r5, #0]
    if (hadc->Init.LowPowerAutoPowerOff != ENABLE)
 8001a7c:	7e63      	ldrb	r3, [r4, #25]
 8001a7e:	2b01      	cmp	r3, #1
 8001a80:	d111      	bne.n	8001aa6 <HAL_ADC_Start+0x46>
      ADC_STATE_CLR_SET(hadc->State,
 8001a82:	6ba3      	ldr	r3, [r4, #56]	; 0x38
 8001a84:	4a0b      	ldr	r2, [pc, #44]	; (8001ab4 <HAL_ADC_Start+0x54>)
      ADC_CLEAR_ERRORCODE(hadc);
 8001a86:	2000      	movs	r0, #0
      ADC_STATE_CLR_SET(hadc->State,
 8001a88:	401a      	ands	r2, r3
 8001a8a:	2380      	movs	r3, #128	; 0x80
 8001a8c:	005b      	lsls	r3, r3, #1
 8001a8e:	4313      	orrs	r3, r2
      __HAL_ADC_CLEAR_FLAG(hadc, (ADC_FLAG_EOC | ADC_FLAG_EOS | ADC_FLAG_OVR));
 8001a90:	221c      	movs	r2, #28
      ADC_STATE_CLR_SET(hadc->State,
 8001a92:	63a3      	str	r3, [r4, #56]	; 0x38
      __HAL_ADC_CLEAR_FLAG(hadc, (ADC_FLAG_EOC | ADC_FLAG_EOS | ADC_FLAG_OVR));
 8001a94:	6823      	ldr	r3, [r4, #0]
      ADC_CLEAR_ERRORCODE(hadc);
 8001a96:	63e0      	str	r0, [r4, #60]	; 0x3c
      __HAL_UNLOCK(hadc);
 8001a98:	7028      	strb	r0, [r5, #0]
      __HAL_ADC_CLEAR_FLAG(hadc, (ADC_FLAG_EOC | ADC_FLAG_EOS | ADC_FLAG_OVR));
 8001a9a:	601a      	str	r2, [r3, #0]
      hadc->Instance->CR |= ADC_CR_ADSTART;
 8001a9c:	6899      	ldr	r1, [r3, #8]
 8001a9e:	3a18      	subs	r2, #24
 8001aa0:	430a      	orrs	r2, r1
 8001aa2:	609a      	str	r2, [r3, #8]
}
 8001aa4:	bd70      	pop	{r4, r5, r6, pc}
      tmp_hal_status = ADC_Enable(hadc);
 8001aa6:	0020      	movs	r0, r4
 8001aa8:	f7ff fee8 	bl	800187c <ADC_Enable>
    if (tmp_hal_status == HAL_OK)
 8001aac:	2800      	cmp	r0, #0
 8001aae:	d0e8      	beq.n	8001a82 <HAL_ADC_Start+0x22>
 8001ab0:	e7f8      	b.n	8001aa4 <HAL_ADC_Start+0x44>
 8001ab2:	46c0      	nop			; (mov r8, r8)
 8001ab4:	fffff0fe 	.word	0xfffff0fe

08001ab8 <HAL_ADC_PollForConversion>:
{
 8001ab8:	b5f8      	push	{r3, r4, r5, r6, r7, lr}
  if (hadc->Init.EOCSelection == ADC_EOC_SEQ_CONV)
 8001aba:	6945      	ldr	r5, [r0, #20]
{
 8001abc:	0004      	movs	r4, r0
 8001abe:	000e      	movs	r6, r1
  if (hadc->Init.EOCSelection == ADC_EOC_SEQ_CONV)
 8001ac0:	2d08      	cmp	r5, #8
 8001ac2:	d00d      	beq.n	8001ae0 <HAL_ADC_PollForConversion+0x28>
    if (HAL_IS_BIT_SET(hadc->Instance->CFGR1, ADC_CFGR1_DMAEN))
 8001ac4:	6803      	ldr	r3, [r0, #0]
 8001ac6:	2001      	movs	r0, #1
 8001ac8:	68db      	ldr	r3, [r3, #12]
      tmp_Flag_EOC = (ADC_FLAG_EOC | ADC_FLAG_EOS);
 8001aca:	250c      	movs	r5, #12
    if (HAL_IS_BIT_SET(hadc->Instance->CFGR1, ADC_CFGR1_DMAEN))
 8001acc:	4203      	tst	r3, r0
 8001ace:	d007      	beq.n	8001ae0 <HAL_ADC_PollForConversion+0x28>
      SET_BIT(hadc->State, HAL_ADC_STATE_ERROR_CONFIG);
 8001ad0:	2320      	movs	r3, #32
 8001ad2:	6ba2      	ldr	r2, [r4, #56]	; 0x38
      __HAL_UNLOCK(hadc);
 8001ad4:	3434      	adds	r4, #52	; 0x34
      SET_BIT(hadc->State, HAL_ADC_STATE_ERROR_CONFIG);
 8001ad6:	4313      	orrs	r3, r2
 8001ad8:	6063      	str	r3, [r4, #4]
      __HAL_UNLOCK(hadc);
 8001ada:	2300      	movs	r3, #0
 8001adc:	7023      	strb	r3, [r4, #0]
}
 8001ade:	bdf8      	pop	{r3, r4, r5, r6, r7, pc}
  tickstart = HAL_GetTick();
 8001ae0:	f7ff feb4 	bl	800184c <HAL_GetTick>
 8001ae4:	0007      	movs	r7, r0
  while(HAL_IS_BIT_CLR(hadc->Instance->ISR, tmp_Flag_EOC))
 8001ae6:	6823      	ldr	r3, [r4, #0]
 8001ae8:	681a      	ldr	r2, [r3, #0]
 8001aea:	4215      	tst	r5, r2
 8001aec:	d023      	beq.n	8001b36 <HAL_ADC_PollForConversion+0x7e>
  SET_BIT(hadc->State, HAL_ADC_STATE_REG_EOC);
 8001aee:	2280      	movs	r2, #128	; 0x80
 8001af0:	6ba1      	ldr	r1, [r4, #56]	; 0x38
 8001af2:	0092      	lsls	r2, r2, #2
 8001af4:	430a      	orrs	r2, r1
 8001af6:	63a2      	str	r2, [r4, #56]	; 0x38
  if(ADC_IS_SOFTWARE_START_REGULAR(hadc)        && 
 8001af8:	22c0      	movs	r2, #192	; 0xc0
 8001afa:	68d9      	ldr	r1, [r3, #12]
 8001afc:	0112      	lsls	r2, r2, #4
 8001afe:	4211      	tst	r1, r2
 8001b00:	d112      	bne.n	8001b28 <HAL_ADC_PollForConversion+0x70>
 8001b02:	7ea2      	ldrb	r2, [r4, #26]
 8001b04:	2a00      	cmp	r2, #0
 8001b06:	d10f      	bne.n	8001b28 <HAL_ADC_PollForConversion+0x70>
    if( __HAL_ADC_GET_FLAG(hadc, ADC_FLAG_EOS) )
 8001b08:	681a      	ldr	r2, [r3, #0]
 8001b0a:	0712      	lsls	r2, r2, #28
 8001b0c:	d50c      	bpl.n	8001b28 <HAL_ADC_PollForConversion+0x70>
      if (ADC_IS_CONVERSION_ONGOING_REGULAR(hadc) == RESET)
 8001b0e:	689a      	ldr	r2, [r3, #8]
 8001b10:	0752      	lsls	r2, r2, #29
 8001b12:	d423      	bmi.n	8001b5c <HAL_ADC_PollForConversion+0xa4>
        __HAL_ADC_DISABLE_IT(hadc, ADC_IT_EOC | ADC_IT_EOS);
 8001b14:	210c      	movs	r1, #12
 8001b16:	685a      	ldr	r2, [r3, #4]
 8001b18:	438a      	bics	r2, r1
 8001b1a:	605a      	str	r2, [r3, #4]
        ADC_STATE_CLR_SET(hadc->State,
 8001b1c:	6ba2      	ldr	r2, [r4, #56]	; 0x38
 8001b1e:	4914      	ldr	r1, [pc, #80]	; (8001b70 <HAL_ADC_PollForConversion+0xb8>)
 8001b20:	4011      	ands	r1, r2
 8001b22:	2201      	movs	r2, #1
 8001b24:	430a      	orrs	r2, r1
 8001b26:	63a2      	str	r2, [r4, #56]	; 0x38
  return HAL_OK;
 8001b28:	2000      	movs	r0, #0
  if (hadc->Init.LowPowerAutoWait == DISABLE)
 8001b2a:	7e22      	ldrb	r2, [r4, #24]
 8001b2c:	4282      	cmp	r2, r0
 8001b2e:	d1d6      	bne.n	8001ade <HAL_ADC_PollForConversion+0x26>
    __HAL_ADC_CLEAR_FLAG(hadc, (ADC_FLAG_EOC | ADC_FLAG_EOS));
 8001b30:	220c      	movs	r2, #12
 8001b32:	601a      	str	r2, [r3, #0]
 8001b34:	e7d3      	b.n	8001ade <HAL_ADC_PollForConversion+0x26>
    if(Timeout != HAL_MAX_DELAY)
 8001b36:	1c72      	adds	r2, r6, #1
 8001b38:	d0d6      	beq.n	8001ae8 <HAL_ADC_PollForConversion+0x30>
      if((Timeout == 0) || ((HAL_GetTick()-tickstart) > Timeout))
 8001b3a:	2e00      	cmp	r6, #0
 8001b3c:	d108      	bne.n	8001b50 <HAL_ADC_PollForConversion+0x98>
        SET_BIT(hadc->State, HAL_ADC_STATE_TIMEOUT);
 8001b3e:	2304      	movs	r3, #4
 8001b40:	6ba2      	ldr	r2, [r4, #56]	; 0x38
        __HAL_UNLOCK(hadc);
 8001b42:	3434      	adds	r4, #52	; 0x34
        SET_BIT(hadc->State, HAL_ADC_STATE_TIMEOUT);
 8001b44:	4313      	orrs	r3, r2
 8001b46:	6063      	str	r3, [r4, #4]
        __HAL_UNLOCK(hadc);
 8001b48:	2300      	movs	r3, #0
        return HAL_TIMEOUT;
 8001b4a:	2003      	movs	r0, #3
        __HAL_UNLOCK(hadc);
 8001b4c:	7023      	strb	r3, [r4, #0]
        return HAL_TIMEOUT;
 8001b4e:	e7c6      	b.n	8001ade <HAL_ADC_PollForConversion+0x26>
      if((Timeout == 0) || ((HAL_GetTick()-tickstart) > Timeout))
 8001b50:	f7ff fe7c 	bl	800184c <HAL_GetTick>
 8001b54:	1bc0      	subs	r0, r0, r7
 8001b56:	42b0      	cmp	r0, r6
 8001b58:	d9c5      	bls.n	8001ae6 <HAL_ADC_PollForConversion+0x2e>
 8001b5a:	e7f0      	b.n	8001b3e <HAL_ADC_PollForConversion+0x86>
        SET_BIT(hadc->State, HAL_ADC_STATE_ERROR_CONFIG);
 8001b5c:	2220      	movs	r2, #32
 8001b5e:	6ba1      	ldr	r1, [r4, #56]	; 0x38
 8001b60:	430a      	orrs	r2, r1
 8001b62:	63a2      	str	r2, [r4, #56]	; 0x38
        SET_BIT(hadc->ErrorCode, HAL_ADC_ERROR_INTERNAL);
 8001b64:	2201      	movs	r2, #1
 8001b66:	6be1      	ldr	r1, [r4, #60]	; 0x3c
 8001b68:	430a      	orrs	r2, r1
 8001b6a:	63e2      	str	r2, [r4, #60]	; 0x3c
 8001b6c:	e7dc      	b.n	8001b28 <HAL_ADC_PollForConversion+0x70>
 8001b6e:	46c0      	nop			; (mov r8, r8)
 8001b70:	fffffefe 	.word	0xfffffefe

08001b74 <HAL_ADC_GetValue>:
  return hadc->Instance->DR;
 8001b74:	6803      	ldr	r3, [r0, #0]
 8001b76:	6c18      	ldr	r0, [r3, #64]	; 0x40
}
 8001b78:	4770      	bx	lr
	...

08001b7c <HAL_ADC_ConfigChannel>:
{
 8001b7c:	b5f0      	push	{r4, r5, r6, r7, lr}
  __IO uint32_t wait_loop_index = 0U;
 8001b7e:	2300      	movs	r3, #0
  __HAL_LOCK(hadc);
 8001b80:	0004      	movs	r4, r0
{
 8001b82:	b085      	sub	sp, #20
  __IO uint32_t wait_loop_index = 0U;
 8001b84:	9303      	str	r3, [sp, #12]
  __HAL_LOCK(hadc);
 8001b86:	3434      	adds	r4, #52	; 0x34
 8001b88:	7823      	ldrb	r3, [r4, #0]
{
 8001b8a:	0002      	movs	r2, r0
  __HAL_LOCK(hadc);
 8001b8c:	2002      	movs	r0, #2
 8001b8e:	2b01      	cmp	r3, #1
 8001b90:	d02f      	beq.n	8001bf2 <HAL_ADC_ConfigChannel+0x76>
  if (! IS_ADC_SAMPLE_TIME(hadc->Init.SamplingTimeCommon))
 8001b92:	6ad3      	ldr	r3, [r2, #44]	; 0x2c
  if (ADC_IS_CONVERSION_ONGOING_REGULAR(hadc) == RESET)
 8001b94:	6817      	ldr	r7, [r2, #0]
  if (! IS_ADC_SAMPLE_TIME(hadc->Init.SamplingTimeCommon))
 8001b96:	469c      	mov	ip, r3
  __HAL_LOCK(hadc);
 8001b98:	2301      	movs	r3, #1
  if (ADC_IS_CONVERSION_ONGOING_REGULAR(hadc) == RESET)
 8001b9a:	68bd      	ldr	r5, [r7, #8]
 8001b9c:	1800      	adds	r0, r0, r0
  __HAL_LOCK(hadc);
 8001b9e:	7023      	strb	r3, [r4, #0]
  if (ADC_IS_CONVERSION_ONGOING_REGULAR(hadc) == RESET)
 8001ba0:	4005      	ands	r5, r0
 8001ba2:	d159      	bne.n	8001c58 <HAL_ADC_ConfigChannel+0xdc>
 8001ba4:	680e      	ldr	r6, [r1, #0]
    if (sConfig->Rank != ADC_RANK_NONE)
 8001ba6:	482f      	ldr	r0, [pc, #188]	; (8001c64 <HAL_ADC_ConfigChannel+0xe8>)
 8001ba8:	40b3      	lsls	r3, r6
 8001baa:	0032      	movs	r2, r6
 8001bac:	9301      	str	r3, [sp, #4]
 8001bae:	684b      	ldr	r3, [r1, #4]
 8001bb0:	3a10      	subs	r2, #16
 8001bb2:	4283      	cmp	r3, r0
 8001bb4:	d03d      	beq.n	8001c32 <HAL_ADC_ConfigChannel+0xb6>
      hadc->Instance->CHSELR |= ADC_CHSELR_CHANNEL(sConfig->Channel);
 8001bb6:	6abb      	ldr	r3, [r7, #40]	; 0x28
 8001bb8:	9801      	ldr	r0, [sp, #4]
 8001bba:	4318      	orrs	r0, r3
      if (! IS_ADC_SAMPLE_TIME(hadc->Init.SamplingTimeCommon))
 8001bbc:	2380      	movs	r3, #128	; 0x80
      hadc->Instance->CHSELR |= ADC_CHSELR_CHANNEL(sConfig->Channel);
 8001bbe:	62b8      	str	r0, [r7, #40]	; 0x28
      if (! IS_ADC_SAMPLE_TIME(hadc->Init.SamplingTimeCommon))
 8001bc0:	055b      	lsls	r3, r3, #21
 8001bc2:	459c      	cmp	ip, r3
 8001bc4:	d010      	beq.n	8001be8 <HAL_ADC_ConfigChannel+0x6c>
 8001bc6:	4663      	mov	r3, ip
 8001bc8:	3b01      	subs	r3, #1
 8001bca:	2b06      	cmp	r3, #6
 8001bcc:	d90c      	bls.n	8001be8 <HAL_ADC_ConfigChannel+0x6c>
        if (sConfig->SamplingTime != ADC_GET_SAMPLINGTIME(hadc))
 8001bce:	688b      	ldr	r3, [r1, #8]
 8001bd0:	2107      	movs	r1, #7
 8001bd2:	6978      	ldr	r0, [r7, #20]
 8001bd4:	4008      	ands	r0, r1
 8001bd6:	4283      	cmp	r3, r0
 8001bd8:	d006      	beq.n	8001be8 <HAL_ADC_ConfigChannel+0x6c>
          hadc->Instance->SMPR &= ~(ADC_SMPR_SMP);
 8001bda:	6978      	ldr	r0, [r7, #20]
          hadc->Instance->SMPR |= ADC_SMPR_SET(sConfig->SamplingTime);
 8001bdc:	400b      	ands	r3, r1
          hadc->Instance->SMPR &= ~(ADC_SMPR_SMP);
 8001bde:	4388      	bics	r0, r1
 8001be0:	6178      	str	r0, [r7, #20]
          hadc->Instance->SMPR |= ADC_SMPR_SET(sConfig->SamplingTime);
 8001be2:	6978      	ldr	r0, [r7, #20]
 8001be4:	4303      	orrs	r3, r0
 8001be6:	617b      	str	r3, [r7, #20]
      if(ADC_IS_CHANNEL_INTERNAL(sConfig->Channel))
 8001be8:	2a01      	cmp	r2, #1
 8001bea:	d904      	bls.n	8001bf6 <HAL_ADC_ConfigChannel+0x7a>
  HAL_StatusTypeDef tmp_hal_status = HAL_OK;
 8001bec:	2000      	movs	r0, #0
  __HAL_UNLOCK(hadc);
 8001bee:	2300      	movs	r3, #0
 8001bf0:	7023      	strb	r3, [r4, #0]
}
 8001bf2:	b005      	add	sp, #20
 8001bf4:	bdf0      	pop	{r4, r5, r6, r7, pc}
        ADC->CCR |= ADC_CHANNEL_INTERNAL_PATH(sConfig->Channel);
 8001bf6:	0033      	movs	r3, r6
 8001bf8:	3b10      	subs	r3, #16
 8001bfa:	1e58      	subs	r0, r3, #1
 8001bfc:	4183      	sbcs	r3, r0
 8001bfe:	2080      	movs	r0, #128	; 0x80
 8001c00:	4919      	ldr	r1, [pc, #100]	; (8001c68 <HAL_ADC_ConfigChannel+0xec>)
 8001c02:	425b      	negs	r3, r3
 8001c04:	680a      	ldr	r2, [r1, #0]
 8001c06:	059b      	lsls	r3, r3, #22
 8001c08:	0400      	lsls	r0, r0, #16
 8001c0a:	181b      	adds	r3, r3, r0
 8001c0c:	4313      	orrs	r3, r2
 8001c0e:	600b      	str	r3, [r1, #0]
        if (sConfig->Channel == ADC_CHANNEL_TEMPSENSOR)
 8001c10:	2e10      	cmp	r6, #16
 8001c12:	d1eb      	bne.n	8001bec <HAL_ADC_ConfigChannel+0x70>
          wait_loop_index = (ADC_TEMPSENSOR_DELAY_US * (SystemCoreClock / 1000000U));
 8001c14:	4b15      	ldr	r3, [pc, #84]	; (8001c6c <HAL_ADC_ConfigChannel+0xf0>)
 8001c16:	4916      	ldr	r1, [pc, #88]	; (8001c70 <HAL_ADC_ConfigChannel+0xf4>)
 8001c18:	6818      	ldr	r0, [r3, #0]
 8001c1a:	f7fe fa7f 	bl	800011c <__udivsi3>
 8001c1e:	230a      	movs	r3, #10
 8001c20:	4358      	muls	r0, r3
 8001c22:	9003      	str	r0, [sp, #12]
          while(wait_loop_index != 0U)
 8001c24:	9b03      	ldr	r3, [sp, #12]
 8001c26:	2b00      	cmp	r3, #0
 8001c28:	d0e0      	beq.n	8001bec <HAL_ADC_ConfigChannel+0x70>
            wait_loop_index--;
 8001c2a:	9b03      	ldr	r3, [sp, #12]
 8001c2c:	3b01      	subs	r3, #1
 8001c2e:	9303      	str	r3, [sp, #12]
 8001c30:	e7f8      	b.n	8001c24 <HAL_ADC_ConfigChannel+0xa8>
      hadc->Instance->CHSELR &= ~ADC_CHSELR_CHANNEL(sConfig->Channel);
 8001c32:	6ab9      	ldr	r1, [r7, #40]	; 0x28
 8001c34:	9b01      	ldr	r3, [sp, #4]
 8001c36:	4399      	bics	r1, r3
 8001c38:	62b9      	str	r1, [r7, #40]	; 0x28
      if(ADC_IS_CHANNEL_INTERNAL(sConfig->Channel))
 8001c3a:	2a01      	cmp	r2, #1
 8001c3c:	d8d6      	bhi.n	8001bec <HAL_ADC_ConfigChannel+0x70>
        ADC->CCR &= ~ADC_CHANNEL_INTERNAL_PATH(sConfig->Channel);
 8001c3e:	1e53      	subs	r3, r2, #1
 8001c40:	419a      	sbcs	r2, r3
 8001c42:	4253      	negs	r3, r2
 8001c44:	2280      	movs	r2, #128	; 0x80
 8001c46:	4908      	ldr	r1, [pc, #32]	; (8001c68 <HAL_ADC_ConfigChannel+0xec>)
 8001c48:	03d2      	lsls	r2, r2, #15
 8001c4a:	4013      	ands	r3, r2
 8001c4c:	4a09      	ldr	r2, [pc, #36]	; (8001c74 <HAL_ADC_ConfigChannel+0xf8>)
 8001c4e:	6808      	ldr	r0, [r1, #0]
 8001c50:	189b      	adds	r3, r3, r2
 8001c52:	4003      	ands	r3, r0
 8001c54:	600b      	str	r3, [r1, #0]
 8001c56:	e7c9      	b.n	8001bec <HAL_ADC_ConfigChannel+0x70>
    SET_BIT(hadc->State, HAL_ADC_STATE_ERROR_CONFIG);
 8001c58:	2120      	movs	r1, #32
 8001c5a:	6b90      	ldr	r0, [r2, #56]	; 0x38
 8001c5c:	4301      	orrs	r1, r0
 8001c5e:	6391      	str	r1, [r2, #56]	; 0x38
    tmp_hal_status = HAL_ERROR;
 8001c60:	0018      	movs	r0, r3
 8001c62:	e7c4      	b.n	8001bee <HAL_ADC_ConfigChannel+0x72>
 8001c64:	00001001 	.word	0x00001001
 8001c68:	40012708 	.word	0x40012708
 8001c6c:	20000024 	.word	0x20000024
 8001c70:	000f4240 	.word	0x000f4240
 8001c74:	ff7fffff 	.word	0xff7fffff

08001c78 <HAL_NVIC_SetPriority>:
  *         with stm32f0xx devices, this parameter is a dummy value and it is ignored, because 
  *         no subpriority supported in Cortex M0 based products.   
  * @retval None
  */
void HAL_NVIC_SetPriority(IRQn_Type IRQn, uint32_t PreemptPriority, uint32_t SubPriority)
{ 
 8001c78:	b530      	push	{r4, r5, lr}
 8001c7a:	25ff      	movs	r5, #255	; 0xff
 8001c7c:	2403      	movs	r4, #3
 8001c7e:	002a      	movs	r2, r5
 8001c80:	b2c3      	uxtb	r3, r0
 8001c82:	401c      	ands	r4, r3
 8001c84:	00e4      	lsls	r4, r4, #3
 8001c86:	40a2      	lsls	r2, r4
 8001c88:	0189      	lsls	r1, r1, #6
 8001c8a:	4029      	ands	r1, r5
 8001c8c:	43d2      	mvns	r2, r2
 8001c8e:	40a1      	lsls	r1, r4
  \param [in]  priority  Priority to set.
  \note    The priority cannot be set for every processor exception.
 */
__STATIC_INLINE void __NVIC_SetPriority(IRQn_Type IRQn, uint32_t priority)
{
  if ((int32_t)(IRQn) >= 0)
 8001c90:	2800      	cmp	r0, #0
 8001c92:	db0a      	blt.n	8001caa <HAL_NVIC_SetPriority+0x32>
  {
    NVIC->IP[_IP_IDX(IRQn)]  = ((uint32_t)(NVIC->IP[_IP_IDX(IRQn)]  & ~(0xFFUL << _BIT_SHIFT(IRQn))) |
 8001c94:	24c0      	movs	r4, #192	; 0xc0
 8001c96:	4b0b      	ldr	r3, [pc, #44]	; (8001cc4 <HAL_NVIC_SetPriority+0x4c>)
 8001c98:	0880      	lsrs	r0, r0, #2
 8001c9a:	0080      	lsls	r0, r0, #2
 8001c9c:	18c0      	adds	r0, r0, r3
 8001c9e:	00a4      	lsls	r4, r4, #2
 8001ca0:	5903      	ldr	r3, [r0, r4]
 8001ca2:	401a      	ands	r2, r3
 8001ca4:	4311      	orrs	r1, r2
 8001ca6:	5101      	str	r1, [r0, r4]
  /* Check the parameters */
  assert_param(IS_NVIC_PREEMPTION_PRIORITY(PreemptPriority));
  NVIC_SetPriority(IRQn,PreemptPriority);
}
 8001ca8:	bd30      	pop	{r4, r5, pc}
       (((priority << (8U - __NVIC_PRIO_BITS)) & (uint32_t)0xFFUL) << _BIT_SHIFT(IRQn)));
  }
  else
  {
    SCB->SHP[_SHP_IDX(IRQn)] = ((uint32_t)(SCB->SHP[_SHP_IDX(IRQn)] & ~(0xFFUL << _BIT_SHIFT(IRQn))) |
 8001caa:	200f      	movs	r0, #15
 8001cac:	4003      	ands	r3, r0
 8001cae:	3b08      	subs	r3, #8
 8001cb0:	4805      	ldr	r0, [pc, #20]	; (8001cc8 <HAL_NVIC_SetPriority+0x50>)
 8001cb2:	089b      	lsrs	r3, r3, #2
 8001cb4:	009b      	lsls	r3, r3, #2
 8001cb6:	181b      	adds	r3, r3, r0
 8001cb8:	69d8      	ldr	r0, [r3, #28]
 8001cba:	4002      	ands	r2, r0
 8001cbc:	4311      	orrs	r1, r2
 8001cbe:	61d9      	str	r1, [r3, #28]
 8001cc0:	e7f2      	b.n	8001ca8 <HAL_NVIC_SetPriority+0x30>
 8001cc2:	46c0      	nop			; (mov r8, r8)
 8001cc4:	e000e100 	.word	0xe000e100
 8001cc8:	e000ed00 	.word	0xe000ed00

08001ccc <HAL_SYSTICK_Config>:
           function <b>SysTick_Config</b> is not included. In this case, the file <b><i>device</i>.h</b>
           must contain a vendor-specific implementation of this function.
 */
__STATIC_INLINE uint32_t SysTick_Config(uint32_t ticks)
{
  if ((ticks - 1UL) > SysTick_LOAD_RELOAD_Msk)
 8001ccc:	4a09      	ldr	r2, [pc, #36]	; (8001cf4 <HAL_SYSTICK_Config+0x28>)
 8001cce:	1e43      	subs	r3, r0, #1
  {
    return (1UL);                                                   /* Reload value impossible */
 8001cd0:	2001      	movs	r0, #1
  if ((ticks - 1UL) > SysTick_LOAD_RELOAD_Msk)
 8001cd2:	4293      	cmp	r3, r2
 8001cd4:	d80d      	bhi.n	8001cf2 <HAL_SYSTICK_Config+0x26>
    SCB->SHP[_SHP_IDX(IRQn)] = ((uint32_t)(SCB->SHP[_SHP_IDX(IRQn)] & ~(0xFFUL << _BIT_SHIFT(IRQn))) |
 8001cd6:	21c0      	movs	r1, #192	; 0xc0
  }

  SysTick->LOAD  = (uint32_t)(ticks - 1UL);                         /* set reload register */
 8001cd8:	4a07      	ldr	r2, [pc, #28]	; (8001cf8 <HAL_SYSTICK_Config+0x2c>)
    SCB->SHP[_SHP_IDX(IRQn)] = ((uint32_t)(SCB->SHP[_SHP_IDX(IRQn)] & ~(0xFFUL << _BIT_SHIFT(IRQn))) |
 8001cda:	4808      	ldr	r0, [pc, #32]	; (8001cfc <HAL_SYSTICK_Config+0x30>)
  SysTick->LOAD  = (uint32_t)(ticks - 1UL);                         /* set reload register */
 8001cdc:	6053      	str	r3, [r2, #4]
    SCB->SHP[_SHP_IDX(IRQn)] = ((uint32_t)(SCB->SHP[_SHP_IDX(IRQn)] & ~(0xFFUL << _BIT_SHIFT(IRQn))) |
 8001cde:	6a03      	ldr	r3, [r0, #32]
 8001ce0:	0609      	lsls	r1, r1, #24
 8001ce2:	021b      	lsls	r3, r3, #8
 8001ce4:	0a1b      	lsrs	r3, r3, #8
 8001ce6:	430b      	orrs	r3, r1
 8001ce8:	6203      	str	r3, [r0, #32]
  NVIC_SetPriority (SysTick_IRQn, (1UL << __NVIC_PRIO_BITS) - 1UL); /* set Priority for Systick Interrupt */
  SysTick->VAL   = 0UL;                                             /* Load the SysTick Counter Value */
 8001cea:	2000      	movs	r0, #0
  SysTick->CTRL  = SysTick_CTRL_CLKSOURCE_Msk |
 8001cec:	2307      	movs	r3, #7
  SysTick->VAL   = 0UL;                                             /* Load the SysTick Counter Value */
 8001cee:	6090      	str	r0, [r2, #8]
  SysTick->CTRL  = SysTick_CTRL_CLKSOURCE_Msk |
 8001cf0:	6013      	str	r3, [r2, #0]
  *                  - 1  Function failed.
  */
uint32_t HAL_SYSTICK_Config(uint32_t TicksNumb)
{
   return SysTick_Config(TicksNumb);
}
 8001cf2:	4770      	bx	lr
 8001cf4:	00ffffff 	.word	0x00ffffff
 8001cf8:	e000e010 	.word	0xe000e010
 8001cfc:	e000ed00 	.word	0xe000ed00

08001d00 <HAL_GPIO_Init>:
  * @param  GPIO_Init pointer to a GPIO_InitTypeDef structure that contains
  *         the configuration information for the specified GPIO peripheral.
  * @retval None
  */
void HAL_GPIO_Init(GPIO_TypeDef  *GPIOx, GPIO_InitTypeDef *GPIO_Init)
{ 
 8001d00:	b5f0      	push	{r4, r5, r6, r7, lr}
  assert_param(IS_GPIO_PIN(GPIO_Init->Pin));
  assert_param(IS_GPIO_MODE(GPIO_Init->Mode));
  assert_param(IS_GPIO_PULL(GPIO_Init->Pull));

  /* Configure the port pins */
  while (((GPIO_Init->Pin) >> position) != 0x00u)
 8001d02:	680b      	ldr	r3, [r1, #0]
{ 
 8001d04:	b087      	sub	sp, #28
  while (((GPIO_Init->Pin) >> position) != 0x00u)
 8001d06:	9303      	str	r3, [sp, #12]
  uint32_t position = 0x00u;
 8001d08:	2300      	movs	r3, #0
{ 
 8001d0a:	9101      	str	r1, [sp, #4]
  while (((GPIO_Init->Pin) >> position) != 0x00u)
 8001d0c:	9a03      	ldr	r2, [sp, #12]
 8001d0e:	40da      	lsrs	r2, r3
 8001d10:	d101      	bne.n	8001d16 <HAL_GPIO_Init+0x16>
      }
    }

    position++;
  } 
}
 8001d12:	b007      	add	sp, #28
 8001d14:	bdf0      	pop	{r4, r5, r6, r7, pc}
    iocurrent = (GPIO_Init->Pin) & (1uL << position);
 8001d16:	2201      	movs	r2, #1
 8001d18:	409a      	lsls	r2, r3
 8001d1a:	9202      	str	r2, [sp, #8]
 8001d1c:	9902      	ldr	r1, [sp, #8]
 8001d1e:	9a03      	ldr	r2, [sp, #12]
 8001d20:	400a      	ands	r2, r1
 8001d22:	9200      	str	r2, [sp, #0]
    if (iocurrent != 0x00u)
 8001d24:	d100      	bne.n	8001d28 <HAL_GPIO_Init+0x28>
 8001d26:	e08c      	b.n	8001e42 <HAL_GPIO_Init+0x142>
      if((GPIO_Init->Mode == GPIO_MODE_AF_PP) || (GPIO_Init->Mode == GPIO_MODE_AF_OD))
 8001d28:	9a01      	ldr	r2, [sp, #4]
 8001d2a:	2110      	movs	r1, #16
 8001d2c:	6852      	ldr	r2, [r2, #4]
 8001d2e:	0016      	movs	r6, r2
 8001d30:	438e      	bics	r6, r1
 8001d32:	2e02      	cmp	r6, #2
 8001d34:	d10e      	bne.n	8001d54 <HAL_GPIO_Init+0x54>
        temp &= ~(0xFu << ((position & 0x07u) * 4u));
 8001d36:	2507      	movs	r5, #7
 8001d38:	401d      	ands	r5, r3
 8001d3a:	00ad      	lsls	r5, r5, #2
 8001d3c:	3901      	subs	r1, #1
 8001d3e:	40a9      	lsls	r1, r5
        temp = GPIOx->AFR[position >> 3u];
 8001d40:	08dc      	lsrs	r4, r3, #3
 8001d42:	00a4      	lsls	r4, r4, #2
 8001d44:	1904      	adds	r4, r0, r4
 8001d46:	6a27      	ldr	r7, [r4, #32]
        temp &= ~(0xFu << ((position & 0x07u) * 4u));
 8001d48:	438f      	bics	r7, r1
        temp |= ((GPIO_Init->Alternate) << ((position & 0x07u) * 4u));
 8001d4a:	9901      	ldr	r1, [sp, #4]
 8001d4c:	6909      	ldr	r1, [r1, #16]
 8001d4e:	40a9      	lsls	r1, r5
 8001d50:	430f      	orrs	r7, r1
        GPIOx->AFR[position >> 3u] = temp;
 8001d52:	6227      	str	r7, [r4, #32]
      temp &= ~(GPIO_MODER_MODER0 << (position * 2u));
 8001d54:	2403      	movs	r4, #3
 8001d56:	005f      	lsls	r7, r3, #1
 8001d58:	40bc      	lsls	r4, r7
 8001d5a:	43e4      	mvns	r4, r4
      temp = GPIOx->MODER;
 8001d5c:	6805      	ldr	r5, [r0, #0]
      if((GPIO_Init->Mode == GPIO_MODE_OUTPUT_PP) || (GPIO_Init->Mode == GPIO_MODE_AF_PP) ||
 8001d5e:	3e01      	subs	r6, #1
      temp &= ~(GPIO_MODER_MODER0 << (position * 2u));
 8001d60:	4025      	ands	r5, r4
 8001d62:	46ac      	mov	ip, r5
      temp |= ((GPIO_Init->Mode & GPIO_MODE) << (position * 2u));
 8001d64:	2503      	movs	r5, #3
 8001d66:	4015      	ands	r5, r2
 8001d68:	40bd      	lsls	r5, r7
 8001d6a:	4661      	mov	r1, ip
 8001d6c:	430d      	orrs	r5, r1
      GPIOx->MODER = temp;
 8001d6e:	6005      	str	r5, [r0, #0]
      if((GPIO_Init->Mode == GPIO_MODE_OUTPUT_PP) || (GPIO_Init->Mode == GPIO_MODE_AF_PP) ||
 8001d70:	2e01      	cmp	r6, #1
 8001d72:	d80f      	bhi.n	8001d94 <HAL_GPIO_Init+0x94>
        temp |= (GPIO_Init->Speed << (position * 2u));
 8001d74:	9901      	ldr	r1, [sp, #4]
        temp = GPIOx->OSPEEDR;
 8001d76:	6886      	ldr	r6, [r0, #8]
        temp |= (GPIO_Init->Speed << (position * 2u));
 8001d78:	68cd      	ldr	r5, [r1, #12]
        temp &= ~(GPIO_OSPEEDER_OSPEEDR0 << (position * 2u));
 8001d7a:	4026      	ands	r6, r4
        temp |= (GPIO_Init->Speed << (position * 2u));
 8001d7c:	40bd      	lsls	r5, r7
 8001d7e:	4335      	orrs	r5, r6
        GPIOx->OSPEEDR = temp;
 8001d80:	6085      	str	r5, [r0, #8]
        temp = GPIOx->OTYPER;
 8001d82:	6846      	ldr	r6, [r0, #4]
        temp &= ~(GPIO_OTYPER_OT_0 << position) ;
 8001d84:	9902      	ldr	r1, [sp, #8]
        temp |= (((GPIO_Init->Mode & GPIO_OUTPUT_TYPE) >> 4u) << position);
 8001d86:	0915      	lsrs	r5, r2, #4
        temp &= ~(GPIO_OTYPER_OT_0 << position) ;
 8001d88:	438e      	bics	r6, r1
        temp |= (((GPIO_Init->Mode & GPIO_OUTPUT_TYPE) >> 4u) << position);
 8001d8a:	2101      	movs	r1, #1
 8001d8c:	400d      	ands	r5, r1
 8001d8e:	409d      	lsls	r5, r3
 8001d90:	4335      	orrs	r5, r6
        GPIOx->OTYPER = temp;
 8001d92:	6045      	str	r5, [r0, #4]
      temp = GPIOx->PUPDR;
 8001d94:	68c5      	ldr	r5, [r0, #12]
      temp |= ((GPIO_Init->Pull) << (position * 2u));
 8001d96:	9901      	ldr	r1, [sp, #4]
      temp &= ~(GPIO_PUPDR_PUPDR0 << (position * 2u));
 8001d98:	402c      	ands	r4, r5
      temp |= ((GPIO_Init->Pull) << (position * 2u));
 8001d9a:	688d      	ldr	r5, [r1, #8]
      if((GPIO_Init->Mode & EXTI_MODE) == EXTI_MODE)
 8001d9c:	2180      	movs	r1, #128	; 0x80
      temp |= ((GPIO_Init->Pull) << (position * 2u));
 8001d9e:	40bd      	lsls	r5, r7
      if((GPIO_Init->Mode & EXTI_MODE) == EXTI_MODE)
 8001da0:	0549      	lsls	r1, r1, #21
      temp |= ((GPIO_Init->Pull) << (position * 2u));
 8001da2:	432c      	orrs	r4, r5
      GPIOx->PUPDR = temp;
 8001da4:	60c4      	str	r4, [r0, #12]
      if((GPIO_Init->Mode & EXTI_MODE) == EXTI_MODE)
 8001da6:	420a      	tst	r2, r1
 8001da8:	d04b      	beq.n	8001e42 <HAL_GPIO_Init+0x142>
        __HAL_RCC_SYSCFG_CLK_ENABLE();
 8001daa:	2101      	movs	r1, #1
 8001dac:	4c26      	ldr	r4, [pc, #152]	; (8001e48 <HAL_GPIO_Init+0x148>)
        temp &= ~(0x0FuL << (4u * (position & 0x03u)));
 8001dae:	2603      	movs	r6, #3
        __HAL_RCC_SYSCFG_CLK_ENABLE();
 8001db0:	69a5      	ldr	r5, [r4, #24]
        temp &= ~(0x0FuL << (4u * (position & 0x03u)));
 8001db2:	401e      	ands	r6, r3
        __HAL_RCC_SYSCFG_CLK_ENABLE();
 8001db4:	430d      	orrs	r5, r1
 8001db6:	61a5      	str	r5, [r4, #24]
 8001db8:	69a4      	ldr	r4, [r4, #24]
        temp = SYSCFG->EXTICR[position >> 2u];
 8001dba:	089d      	lsrs	r5, r3, #2
        __HAL_RCC_SYSCFG_CLK_ENABLE();
 8001dbc:	400c      	ands	r4, r1
 8001dbe:	9405      	str	r4, [sp, #20]
 8001dc0:	9c05      	ldr	r4, [sp, #20]
        temp &= ~(0x0FuL << (4u * (position & 0x03u)));
 8001dc2:	240f      	movs	r4, #15
 8001dc4:	4921      	ldr	r1, [pc, #132]	; (8001e4c <HAL_GPIO_Init+0x14c>)
 8001dc6:	00ad      	lsls	r5, r5, #2
 8001dc8:	00b6      	lsls	r6, r6, #2
 8001dca:	186d      	adds	r5, r5, r1
 8001dcc:	40b4      	lsls	r4, r6
        temp |= (GPIO_GET_INDEX(GPIOx) << (4u * (position & 0x03u)));
 8001dce:	2190      	movs	r1, #144	; 0x90
        temp = SYSCFG->EXTICR[position >> 2u];
 8001dd0:	68af      	ldr	r7, [r5, #8]
        temp |= (GPIO_GET_INDEX(GPIOx) << (4u * (position & 0x03u)));
 8001dd2:	05c9      	lsls	r1, r1, #23
        temp &= ~(0x0FuL << (4u * (position & 0x03u)));
 8001dd4:	43a7      	bics	r7, r4
        temp |= (GPIO_GET_INDEX(GPIOx) << (4u * (position & 0x03u)));
 8001dd6:	2400      	movs	r4, #0
 8001dd8:	4288      	cmp	r0, r1
 8001dda:	d00c      	beq.n	8001df6 <HAL_GPIO_Init+0xf6>
 8001ddc:	491c      	ldr	r1, [pc, #112]	; (8001e50 <HAL_GPIO_Init+0x150>)
 8001dde:	3401      	adds	r4, #1
 8001de0:	4288      	cmp	r0, r1
 8001de2:	d008      	beq.n	8001df6 <HAL_GPIO_Init+0xf6>
 8001de4:	491b      	ldr	r1, [pc, #108]	; (8001e54 <HAL_GPIO_Init+0x154>)
 8001de6:	3401      	adds	r4, #1
 8001de8:	4288      	cmp	r0, r1
 8001dea:	d004      	beq.n	8001df6 <HAL_GPIO_Init+0xf6>
 8001dec:	491a      	ldr	r1, [pc, #104]	; (8001e58 <HAL_GPIO_Init+0x158>)
 8001dee:	3403      	adds	r4, #3
 8001df0:	4288      	cmp	r0, r1
 8001df2:	d100      	bne.n	8001df6 <HAL_GPIO_Init+0xf6>
 8001df4:	3c02      	subs	r4, #2
 8001df6:	40b4      	lsls	r4, r6
        temp &= ~(iocurrent);
 8001df8:	9900      	ldr	r1, [sp, #0]
        temp |= (GPIO_GET_INDEX(GPIOx) << (4u * (position & 0x03u)));
 8001dfa:	433c      	orrs	r4, r7
          temp |= iocurrent;
 8001dfc:	000e      	movs	r6, r1
        SYSCFG->EXTICR[position >> 2u] = temp;
 8001dfe:	60ac      	str	r4, [r5, #8]
        temp = EXTI->IMR;
 8001e00:	4c16      	ldr	r4, [pc, #88]	; (8001e5c <HAL_GPIO_Init+0x15c>)
        temp &= ~(iocurrent);
 8001e02:	43cd      	mvns	r5, r1
        temp = EXTI->IMR;
 8001e04:	6827      	ldr	r7, [r4, #0]
          temp |= iocurrent;
 8001e06:	433e      	orrs	r6, r7
        if((GPIO_Init->Mode & GPIO_MODE_IT) == GPIO_MODE_IT)
 8001e08:	03d1      	lsls	r1, r2, #15
 8001e0a:	d401      	bmi.n	8001e10 <HAL_GPIO_Init+0x110>
        temp &= ~(iocurrent);
 8001e0c:	003e      	movs	r6, r7
 8001e0e:	402e      	ands	r6, r5
        EXTI->IMR = temp;
 8001e10:	6026      	str	r6, [r4, #0]
        temp = EXTI->EMR;
 8001e12:	6867      	ldr	r7, [r4, #4]
          temp |= iocurrent;
 8001e14:	9e00      	ldr	r6, [sp, #0]
 8001e16:	433e      	orrs	r6, r7
        if((GPIO_Init->Mode & GPIO_MODE_EVT) == GPIO_MODE_EVT)
 8001e18:	0391      	lsls	r1, r2, #14
 8001e1a:	d401      	bmi.n	8001e20 <HAL_GPIO_Init+0x120>
        temp &= ~(iocurrent);
 8001e1c:	003e      	movs	r6, r7
 8001e1e:	402e      	ands	r6, r5
        EXTI->EMR = temp;
 8001e20:	6066      	str	r6, [r4, #4]
        temp = EXTI->RTSR;
 8001e22:	68a7      	ldr	r7, [r4, #8]
          temp |= iocurrent;
 8001e24:	9e00      	ldr	r6, [sp, #0]
 8001e26:	433e      	orrs	r6, r7
        if((GPIO_Init->Mode & RISING_EDGE) == RISING_EDGE)
 8001e28:	02d1      	lsls	r1, r2, #11
 8001e2a:	d401      	bmi.n	8001e30 <HAL_GPIO_Init+0x130>
        temp &= ~(iocurrent);
 8001e2c:	003e      	movs	r6, r7
 8001e2e:	402e      	ands	r6, r5
        EXTI->RTSR = temp;
 8001e30:	60a6      	str	r6, [r4, #8]
        temp = EXTI->FTSR;
 8001e32:	68e6      	ldr	r6, [r4, #12]
          temp |= iocurrent;
 8001e34:	9f00      	ldr	r7, [sp, #0]
 8001e36:	4337      	orrs	r7, r6
        if((GPIO_Init->Mode & FALLING_EDGE) == FALLING_EDGE)
 8001e38:	0292      	lsls	r2, r2, #10
 8001e3a:	d401      	bmi.n	8001e40 <HAL_GPIO_Init+0x140>
        temp &= ~(iocurrent);
 8001e3c:	402e      	ands	r6, r5
 8001e3e:	0037      	movs	r7, r6
        EXTI->FTSR = temp;
 8001e40:	60e7      	str	r7, [r4, #12]
    position++;
 8001e42:	3301      	adds	r3, #1
 8001e44:	e762      	b.n	8001d0c <HAL_GPIO_Init+0xc>
 8001e46:	46c0      	nop			; (mov r8, r8)
 8001e48:	40021000 	.word	0x40021000
 8001e4c:	40010000 	.word	0x40010000
 8001e50:	48000400 	.word	0x48000400
 8001e54:	48000800 	.word	0x48000800
 8001e58:	48000c00 	.word	0x48000c00
 8001e5c:	40010400 	.word	0x40010400

08001e60 <HAL_GPIO_ReadPin>:
  GPIO_PinState bitstatus;

  /* Check the parameters */
  assert_param(IS_GPIO_PIN(GPIO_Pin));

  if ((GPIOx->IDR & GPIO_Pin) != (uint32_t)GPIO_PIN_RESET)
 8001e60:	6900      	ldr	r0, [r0, #16]
 8001e62:	4008      	ands	r0, r1
 8001e64:	1e41      	subs	r1, r0, #1
 8001e66:	4188      	sbcs	r0, r1
  }
  else
  {
    bitstatus = GPIO_PIN_RESET;
  }
  return bitstatus;
 8001e68:	b2c0      	uxtb	r0, r0
  }
 8001e6a:	4770      	bx	lr

08001e6c <HAL_GPIO_WritePin>:
{
  /* Check the parameters */
  assert_param(IS_GPIO_PIN(GPIO_Pin));
  assert_param(IS_GPIO_PIN_ACTION(PinState));

  if (PinState != GPIO_PIN_RESET)
 8001e6c:	2a00      	cmp	r2, #0
 8001e6e:	d001      	beq.n	8001e74 <HAL_GPIO_WritePin+0x8>
  {
    GPIOx->BSRR = (uint32_t)GPIO_Pin;
 8001e70:	6181      	str	r1, [r0, #24]
  }
  else
  {
    GPIOx->BRR = (uint32_t)GPIO_Pin;
  }
}
 8001e72:	4770      	bx	lr
    GPIOx->BRR = (uint32_t)GPIO_Pin;
 8001e74:	6281      	str	r1, [r0, #40]	; 0x28
}
 8001e76:	e7fc      	b.n	8001e72 <HAL_GPIO_WritePin+0x6>

08001e78 <HAL_RCC_OscConfig>:
  *         supported by this macro. User should request a transition to HSE Off
  *         first and then HSE On or HSE Bypass.
  * @retval HAL status
  */
HAL_StatusTypeDef HAL_RCC_OscConfig(RCC_OscInitTypeDef  *RCC_OscInitStruct)
{
 8001e78:	b5f0      	push	{r4, r5, r6, r7, lr}
 8001e7a:	0004      	movs	r4, r0
 8001e7c:	b085      	sub	sp, #20
  uint32_t tickstart;
  uint32_t pll_config;
  uint32_t pll_config2;

  /* Check Null pointer */
  if(RCC_OscInitStruct == NULL)
 8001e7e:	2800      	cmp	r0, #0
 8001e80:	d102      	bne.n	8001e88 <HAL_RCC_OscConfig+0x10>
  {
    return HAL_ERROR;
 8001e82:	2001      	movs	r0, #1
      }
    }
  }

  return HAL_OK;
}
 8001e84:	b005      	add	sp, #20
 8001e86:	bdf0      	pop	{r4, r5, r6, r7, pc}
  if(((RCC_OscInitStruct->OscillatorType) & RCC_OSCILLATORTYPE_HSE) == RCC_OSCILLATORTYPE_HSE)
 8001e88:	6803      	ldr	r3, [r0, #0]
 8001e8a:	07db      	lsls	r3, r3, #31
 8001e8c:	d42e      	bmi.n	8001eec <HAL_RCC_OscConfig+0x74>
  if(((RCC_OscInitStruct->OscillatorType) & RCC_OSCILLATORTYPE_HSI) == RCC_OSCILLATORTYPE_HSI)
 8001e8e:	6823      	ldr	r3, [r4, #0]
 8001e90:	079b      	lsls	r3, r3, #30
 8001e92:	d47e      	bmi.n	8001f92 <HAL_RCC_OscConfig+0x11a>
  if(((RCC_OscInitStruct->OscillatorType) & RCC_OSCILLATORTYPE_LSI) == RCC_OSCILLATORTYPE_LSI)
 8001e94:	6823      	ldr	r3, [r4, #0]
 8001e96:	071b      	lsls	r3, r3, #28
 8001e98:	d500      	bpl.n	8001e9c <HAL_RCC_OscConfig+0x24>
 8001e9a:	e0ba      	b.n	8002012 <HAL_RCC_OscConfig+0x19a>
  if(((RCC_OscInitStruct->OscillatorType) & RCC_OSCILLATORTYPE_LSE) == RCC_OSCILLATORTYPE_LSE)
 8001e9c:	6823      	ldr	r3, [r4, #0]
 8001e9e:	075b      	lsls	r3, r3, #29
 8001ea0:	d500      	bpl.n	8001ea4 <HAL_RCC_OscConfig+0x2c>
 8001ea2:	e0dd      	b.n	8002060 <HAL_RCC_OscConfig+0x1e8>
  if(((RCC_OscInitStruct->OscillatorType) & RCC_OSCILLATORTYPE_HSI14) == RCC_OSCILLATORTYPE_HSI14)
 8001ea4:	6823      	ldr	r3, [r4, #0]
 8001ea6:	06db      	lsls	r3, r3, #27
 8001ea8:	d51a      	bpl.n	8001ee0 <HAL_RCC_OscConfig+0x68>
    if(RCC_OscInitStruct->HSI14State == RCC_HSI14_ON)
 8001eaa:	6962      	ldr	r2, [r4, #20]
 8001eac:	4db4      	ldr	r5, [pc, #720]	; (8002180 <HAL_RCC_OscConfig+0x308>)
 8001eae:	2304      	movs	r3, #4
 8001eb0:	2a01      	cmp	r2, #1
 8001eb2:	d000      	beq.n	8001eb6 <HAL_RCC_OscConfig+0x3e>
 8001eb4:	e149      	b.n	800214a <HAL_RCC_OscConfig+0x2d2>
      __HAL_RCC_HSI14ADC_DISABLE();
 8001eb6:	6b69      	ldr	r1, [r5, #52]	; 0x34
      while(__HAL_RCC_GET_FLAG(RCC_FLAG_HSI14RDY) == RESET)
 8001eb8:	2602      	movs	r6, #2
      __HAL_RCC_HSI14ADC_DISABLE();
 8001eba:	430b      	orrs	r3, r1
 8001ebc:	636b      	str	r3, [r5, #52]	; 0x34
      __HAL_RCC_HSI14_ENABLE();
 8001ebe:	6b6b      	ldr	r3, [r5, #52]	; 0x34
 8001ec0:	431a      	orrs	r2, r3
 8001ec2:	636a      	str	r2, [r5, #52]	; 0x34
      tickstart = HAL_GetTick();
 8001ec4:	f7ff fcc2 	bl	800184c <HAL_GetTick>
 8001ec8:	0007      	movs	r7, r0
      while(__HAL_RCC_GET_FLAG(RCC_FLAG_HSI14RDY) == RESET)
 8001eca:	6b6b      	ldr	r3, [r5, #52]	; 0x34
 8001ecc:	4233      	tst	r3, r6
 8001ece:	d100      	bne.n	8001ed2 <HAL_RCC_OscConfig+0x5a>
 8001ed0:	e134      	b.n	800213c <HAL_RCC_OscConfig+0x2c4>
      __HAL_RCC_HSI14_CALIBRATIONVALUE_ADJUST(RCC_OscInitStruct->HSI14CalibrationValue);
 8001ed2:	21f8      	movs	r1, #248	; 0xf8
 8001ed4:	6b6a      	ldr	r2, [r5, #52]	; 0x34
 8001ed6:	69a3      	ldr	r3, [r4, #24]
 8001ed8:	438a      	bics	r2, r1
 8001eda:	00db      	lsls	r3, r3, #3
 8001edc:	4313      	orrs	r3, r2
 8001ede:	636b      	str	r3, [r5, #52]	; 0x34
  if ((RCC_OscInitStruct->PLL.PLLState) != RCC_PLL_NONE)
 8001ee0:	6a23      	ldr	r3, [r4, #32]
 8001ee2:	2b00      	cmp	r3, #0
 8001ee4:	d000      	beq.n	8001ee8 <HAL_RCC_OscConfig+0x70>
 8001ee6:	e157      	b.n	8002198 <HAL_RCC_OscConfig+0x320>
  return HAL_OK;
 8001ee8:	2000      	movs	r0, #0
 8001eea:	e7cb      	b.n	8001e84 <HAL_RCC_OscConfig+0xc>
    if((__HAL_RCC_GET_SYSCLK_SOURCE() == RCC_SYSCLKSOURCE_STATUS_HSE) 
 8001eec:	210c      	movs	r1, #12
 8001eee:	4da4      	ldr	r5, [pc, #656]	; (8002180 <HAL_RCC_OscConfig+0x308>)
 8001ef0:	686a      	ldr	r2, [r5, #4]
 8001ef2:	400a      	ands	r2, r1
 8001ef4:	2a04      	cmp	r2, #4
 8001ef6:	d006      	beq.n	8001f06 <HAL_RCC_OscConfig+0x8e>
       || ((__HAL_RCC_GET_SYSCLK_SOURCE() == RCC_SYSCLKSOURCE_STATUS_PLLCLK) && (__HAL_RCC_GET_PLL_OSCSOURCE() == RCC_PLLSOURCE_HSE)))
 8001ef8:	686b      	ldr	r3, [r5, #4]
 8001efa:	400b      	ands	r3, r1
 8001efc:	2b08      	cmp	r3, #8
 8001efe:	d109      	bne.n	8001f14 <HAL_RCC_OscConfig+0x9c>
 8001f00:	686b      	ldr	r3, [r5, #4]
 8001f02:	03db      	lsls	r3, r3, #15
 8001f04:	d506      	bpl.n	8001f14 <HAL_RCC_OscConfig+0x9c>
      if((__HAL_RCC_GET_FLAG(RCC_FLAG_HSERDY) != RESET) && (RCC_OscInitStruct->HSEState == RCC_HSE_OFF))
 8001f06:	682b      	ldr	r3, [r5, #0]
 8001f08:	039b      	lsls	r3, r3, #14
 8001f0a:	d5c0      	bpl.n	8001e8e <HAL_RCC_OscConfig+0x16>
 8001f0c:	6863      	ldr	r3, [r4, #4]
 8001f0e:	2b00      	cmp	r3, #0
 8001f10:	d1bd      	bne.n	8001e8e <HAL_RCC_OscConfig+0x16>
 8001f12:	e7b6      	b.n	8001e82 <HAL_RCC_OscConfig+0xa>
      __HAL_RCC_HSE_CONFIG(RCC_OscInitStruct->HSEState);
 8001f14:	6863      	ldr	r3, [r4, #4]
 8001f16:	2b01      	cmp	r3, #1
 8001f18:	d113      	bne.n	8001f42 <HAL_RCC_OscConfig+0xca>
 8001f1a:	2380      	movs	r3, #128	; 0x80
 8001f1c:	682a      	ldr	r2, [r5, #0]
 8001f1e:	025b      	lsls	r3, r3, #9
 8001f20:	4313      	orrs	r3, r2
 8001f22:	602b      	str	r3, [r5, #0]
        tickstart = HAL_GetTick();
 8001f24:	f7ff fc92 	bl	800184c <HAL_GetTick>
        while(__HAL_RCC_GET_FLAG(RCC_FLAG_HSERDY) == RESET)
 8001f28:	2680      	movs	r6, #128	; 0x80
        tickstart = HAL_GetTick();
 8001f2a:	0007      	movs	r7, r0
        while(__HAL_RCC_GET_FLAG(RCC_FLAG_HSERDY) == RESET)
 8001f2c:	02b6      	lsls	r6, r6, #10
 8001f2e:	682b      	ldr	r3, [r5, #0]
 8001f30:	4233      	tst	r3, r6
 8001f32:	d1ac      	bne.n	8001e8e <HAL_RCC_OscConfig+0x16>
          if((HAL_GetTick() - tickstart ) > HSE_TIMEOUT_VALUE)
 8001f34:	f7ff fc8a 	bl	800184c <HAL_GetTick>
 8001f38:	1bc0      	subs	r0, r0, r7
 8001f3a:	2864      	cmp	r0, #100	; 0x64
 8001f3c:	d9f7      	bls.n	8001f2e <HAL_RCC_OscConfig+0xb6>
            return HAL_TIMEOUT;
 8001f3e:	2003      	movs	r0, #3
 8001f40:	e7a0      	b.n	8001e84 <HAL_RCC_OscConfig+0xc>
      __HAL_RCC_HSE_CONFIG(RCC_OscInitStruct->HSEState);
 8001f42:	2b00      	cmp	r3, #0
 8001f44:	d115      	bne.n	8001f72 <HAL_RCC_OscConfig+0xfa>
 8001f46:	682b      	ldr	r3, [r5, #0]
 8001f48:	4a8e      	ldr	r2, [pc, #568]	; (8002184 <HAL_RCC_OscConfig+0x30c>)
        while(__HAL_RCC_GET_FLAG(RCC_FLAG_HSERDY) != RESET)
 8001f4a:	2680      	movs	r6, #128	; 0x80
      __HAL_RCC_HSE_CONFIG(RCC_OscInitStruct->HSEState);
 8001f4c:	4013      	ands	r3, r2
 8001f4e:	602b      	str	r3, [r5, #0]
 8001f50:	682b      	ldr	r3, [r5, #0]
 8001f52:	4a8d      	ldr	r2, [pc, #564]	; (8002188 <HAL_RCC_OscConfig+0x310>)
        while(__HAL_RCC_GET_FLAG(RCC_FLAG_HSERDY) != RESET)
 8001f54:	02b6      	lsls	r6, r6, #10
      __HAL_RCC_HSE_CONFIG(RCC_OscInitStruct->HSEState);
 8001f56:	4013      	ands	r3, r2
 8001f58:	602b      	str	r3, [r5, #0]
        tickstart = HAL_GetTick();
 8001f5a:	f7ff fc77 	bl	800184c <HAL_GetTick>
 8001f5e:	0007      	movs	r7, r0
        while(__HAL_RCC_GET_FLAG(RCC_FLAG_HSERDY) != RESET)
 8001f60:	682b      	ldr	r3, [r5, #0]
 8001f62:	4233      	tst	r3, r6
 8001f64:	d093      	beq.n	8001e8e <HAL_RCC_OscConfig+0x16>
           if((HAL_GetTick() - tickstart ) > HSE_TIMEOUT_VALUE)
 8001f66:	f7ff fc71 	bl	800184c <HAL_GetTick>
 8001f6a:	1bc0      	subs	r0, r0, r7
 8001f6c:	2864      	cmp	r0, #100	; 0x64
 8001f6e:	d9f7      	bls.n	8001f60 <HAL_RCC_OscConfig+0xe8>
 8001f70:	e7e5      	b.n	8001f3e <HAL_RCC_OscConfig+0xc6>
      __HAL_RCC_HSE_CONFIG(RCC_OscInitStruct->HSEState);
 8001f72:	2b05      	cmp	r3, #5
 8001f74:	d105      	bne.n	8001f82 <HAL_RCC_OscConfig+0x10a>
 8001f76:	2380      	movs	r3, #128	; 0x80
 8001f78:	682a      	ldr	r2, [r5, #0]
 8001f7a:	02db      	lsls	r3, r3, #11
 8001f7c:	4313      	orrs	r3, r2
 8001f7e:	602b      	str	r3, [r5, #0]
 8001f80:	e7cb      	b.n	8001f1a <HAL_RCC_OscConfig+0xa2>
 8001f82:	682b      	ldr	r3, [r5, #0]
 8001f84:	4a7f      	ldr	r2, [pc, #508]	; (8002184 <HAL_RCC_OscConfig+0x30c>)
 8001f86:	4013      	ands	r3, r2
 8001f88:	602b      	str	r3, [r5, #0]
 8001f8a:	682b      	ldr	r3, [r5, #0]
 8001f8c:	4a7e      	ldr	r2, [pc, #504]	; (8002188 <HAL_RCC_OscConfig+0x310>)
 8001f8e:	4013      	ands	r3, r2
 8001f90:	e7c7      	b.n	8001f22 <HAL_RCC_OscConfig+0xaa>
    if((__HAL_RCC_GET_SYSCLK_SOURCE() == RCC_SYSCLKSOURCE_STATUS_HSI) 
 8001f92:	220c      	movs	r2, #12
 8001f94:	4d7a      	ldr	r5, [pc, #488]	; (8002180 <HAL_RCC_OscConfig+0x308>)
 8001f96:	686b      	ldr	r3, [r5, #4]
 8001f98:	4213      	tst	r3, r2
 8001f9a:	d006      	beq.n	8001faa <HAL_RCC_OscConfig+0x132>
       || ((__HAL_RCC_GET_SYSCLK_SOURCE() == RCC_SYSCLKSOURCE_STATUS_PLLCLK) && (__HAL_RCC_GET_PLL_OSCSOURCE() == RCC_PLLSOURCE_HSI)))
 8001f9c:	686b      	ldr	r3, [r5, #4]
 8001f9e:	4013      	ands	r3, r2
 8001fa0:	2b08      	cmp	r3, #8
 8001fa2:	d111      	bne.n	8001fc8 <HAL_RCC_OscConfig+0x150>
 8001fa4:	686b      	ldr	r3, [r5, #4]
 8001fa6:	03db      	lsls	r3, r3, #15
 8001fa8:	d40e      	bmi.n	8001fc8 <HAL_RCC_OscConfig+0x150>
      if((__HAL_RCC_GET_FLAG(RCC_FLAG_HSIRDY) != RESET) && (RCC_OscInitStruct->HSIState != RCC_HSI_ON))
 8001faa:	682b      	ldr	r3, [r5, #0]
 8001fac:	079b      	lsls	r3, r3, #30
 8001fae:	d503      	bpl.n	8001fb8 <HAL_RCC_OscConfig+0x140>
 8001fb0:	68e3      	ldr	r3, [r4, #12]
 8001fb2:	2b01      	cmp	r3, #1
 8001fb4:	d000      	beq.n	8001fb8 <HAL_RCC_OscConfig+0x140>
 8001fb6:	e764      	b.n	8001e82 <HAL_RCC_OscConfig+0xa>
        __HAL_RCC_HSI_CALIBRATIONVALUE_ADJUST(RCC_OscInitStruct->HSICalibrationValue);
 8001fb8:	21f8      	movs	r1, #248	; 0xf8
 8001fba:	682a      	ldr	r2, [r5, #0]
 8001fbc:	6923      	ldr	r3, [r4, #16]
 8001fbe:	438a      	bics	r2, r1
 8001fc0:	00db      	lsls	r3, r3, #3
 8001fc2:	4313      	orrs	r3, r2
 8001fc4:	602b      	str	r3, [r5, #0]
 8001fc6:	e765      	b.n	8001e94 <HAL_RCC_OscConfig+0x1c>
      if(RCC_OscInitStruct->HSIState != RCC_HSI_OFF)
 8001fc8:	68e2      	ldr	r2, [r4, #12]
 8001fca:	2301      	movs	r3, #1
 8001fcc:	2a00      	cmp	r2, #0
 8001fce:	d00f      	beq.n	8001ff0 <HAL_RCC_OscConfig+0x178>
        __HAL_RCC_HSI_ENABLE();
 8001fd0:	682a      	ldr	r2, [r5, #0]
        while(__HAL_RCC_GET_FLAG(RCC_FLAG_HSIRDY) == RESET)
 8001fd2:	2602      	movs	r6, #2
        __HAL_RCC_HSI_ENABLE();
 8001fd4:	4313      	orrs	r3, r2
 8001fd6:	602b      	str	r3, [r5, #0]
        tickstart = HAL_GetTick();
 8001fd8:	f7ff fc38 	bl	800184c <HAL_GetTick>
 8001fdc:	0007      	movs	r7, r0
        while(__HAL_RCC_GET_FLAG(RCC_FLAG_HSIRDY) == RESET)
 8001fde:	682b      	ldr	r3, [r5, #0]
 8001fe0:	4233      	tst	r3, r6
 8001fe2:	d1e9      	bne.n	8001fb8 <HAL_RCC_OscConfig+0x140>
          if((HAL_GetTick() - tickstart ) > HSI_TIMEOUT_VALUE)
 8001fe4:	f7ff fc32 	bl	800184c <HAL_GetTick>
 8001fe8:	1bc0      	subs	r0, r0, r7
 8001fea:	2802      	cmp	r0, #2
 8001fec:	d9f7      	bls.n	8001fde <HAL_RCC_OscConfig+0x166>
 8001fee:	e7a6      	b.n	8001f3e <HAL_RCC_OscConfig+0xc6>
        __HAL_RCC_HSI_DISABLE();
 8001ff0:	682a      	ldr	r2, [r5, #0]
        while(__HAL_RCC_GET_FLAG(RCC_FLAG_HSIRDY) != RESET)
 8001ff2:	2602      	movs	r6, #2
        __HAL_RCC_HSI_DISABLE();
 8001ff4:	439a      	bics	r2, r3
 8001ff6:	602a      	str	r2, [r5, #0]
        tickstart = HAL_GetTick();
 8001ff8:	f7ff fc28 	bl	800184c <HAL_GetTick>
 8001ffc:	0007      	movs	r7, r0
        while(__HAL_RCC_GET_FLAG(RCC_FLAG_HSIRDY) != RESET)
 8001ffe:	682b      	ldr	r3, [r5, #0]
 8002000:	4233      	tst	r3, r6
 8002002:	d100      	bne.n	8002006 <HAL_RCC_OscConfig+0x18e>
 8002004:	e746      	b.n	8001e94 <HAL_RCC_OscConfig+0x1c>
          if((HAL_GetTick() - tickstart ) > HSI_TIMEOUT_VALUE)
 8002006:	f7ff fc21 	bl	800184c <HAL_GetTick>
 800200a:	1bc0      	subs	r0, r0, r7
 800200c:	2802      	cmp	r0, #2
 800200e:	d9f6      	bls.n	8001ffe <HAL_RCC_OscConfig+0x186>
 8002010:	e795      	b.n	8001f3e <HAL_RCC_OscConfig+0xc6>
    if(RCC_OscInitStruct->LSIState != RCC_LSI_OFF)
 8002012:	69e2      	ldr	r2, [r4, #28]
 8002014:	2301      	movs	r3, #1
 8002016:	4d5a      	ldr	r5, [pc, #360]	; (8002180 <HAL_RCC_OscConfig+0x308>)
 8002018:	2a00      	cmp	r2, #0
 800201a:	d010      	beq.n	800203e <HAL_RCC_OscConfig+0x1c6>
      __HAL_RCC_LSI_ENABLE();
 800201c:	6a6a      	ldr	r2, [r5, #36]	; 0x24
      while(__HAL_RCC_GET_FLAG(RCC_FLAG_LSIRDY) == RESET)
 800201e:	2602      	movs	r6, #2
      __HAL_RCC_LSI_ENABLE();
 8002020:	4313      	orrs	r3, r2
 8002022:	626b      	str	r3, [r5, #36]	; 0x24
      tickstart = HAL_GetTick();
 8002024:	f7ff fc12 	bl	800184c <HAL_GetTick>
 8002028:	0007      	movs	r7, r0
      while(__HAL_RCC_GET_FLAG(RCC_FLAG_LSIRDY) == RESET)
 800202a:	6a6b      	ldr	r3, [r5, #36]	; 0x24
 800202c:	4233      	tst	r3, r6
 800202e:	d000      	beq.n	8002032 <HAL_RCC_OscConfig+0x1ba>
 8002030:	e734      	b.n	8001e9c <HAL_RCC_OscConfig+0x24>
        if((HAL_GetTick() - tickstart ) > LSI_TIMEOUT_VALUE)
 8002032:	f7ff fc0b 	bl	800184c <HAL_GetTick>
 8002036:	1bc0      	subs	r0, r0, r7
 8002038:	2802      	cmp	r0, #2
 800203a:	d9f6      	bls.n	800202a <HAL_RCC_OscConfig+0x1b2>
 800203c:	e77f      	b.n	8001f3e <HAL_RCC_OscConfig+0xc6>
      __HAL_RCC_LSI_DISABLE();
 800203e:	6a6a      	ldr	r2, [r5, #36]	; 0x24
      while(__HAL_RCC_GET_FLAG(RCC_FLAG_LSIRDY) != RESET)
 8002040:	2602      	movs	r6, #2
      __HAL_RCC_LSI_DISABLE();
 8002042:	439a      	bics	r2, r3
 8002044:	626a      	str	r2, [r5, #36]	; 0x24
      tickstart = HAL_GetTick();
 8002046:	f7ff fc01 	bl	800184c <HAL_GetTick>
 800204a:	0007      	movs	r7, r0
      while(__HAL_RCC_GET_FLAG(RCC_FLAG_LSIRDY) != RESET)
 800204c:	6a6b      	ldr	r3, [r5, #36]	; 0x24
 800204e:	4233      	tst	r3, r6
 8002050:	d100      	bne.n	8002054 <HAL_RCC_OscConfig+0x1dc>
 8002052:	e723      	b.n	8001e9c <HAL_RCC_OscConfig+0x24>
        if((HAL_GetTick() - tickstart ) > LSI_TIMEOUT_VALUE)
 8002054:	f7ff fbfa 	bl	800184c <HAL_GetTick>
 8002058:	1bc0      	subs	r0, r0, r7
 800205a:	2802      	cmp	r0, #2
 800205c:	d9f6      	bls.n	800204c <HAL_RCC_OscConfig+0x1d4>
 800205e:	e76e      	b.n	8001f3e <HAL_RCC_OscConfig+0xc6>
    if(__HAL_RCC_PWR_IS_CLK_DISABLED())
 8002060:	2280      	movs	r2, #128	; 0x80
    FlagStatus       pwrclkchanged = RESET;
 8002062:	2100      	movs	r1, #0
    if(__HAL_RCC_PWR_IS_CLK_DISABLED())
 8002064:	4d46      	ldr	r5, [pc, #280]	; (8002180 <HAL_RCC_OscConfig+0x308>)
 8002066:	0552      	lsls	r2, r2, #21
 8002068:	69eb      	ldr	r3, [r5, #28]
    FlagStatus       pwrclkchanged = RESET;
 800206a:	9100      	str	r1, [sp, #0]
    if(__HAL_RCC_PWR_IS_CLK_DISABLED())
 800206c:	4213      	tst	r3, r2
 800206e:	d108      	bne.n	8002082 <HAL_RCC_OscConfig+0x20a>
      __HAL_RCC_PWR_CLK_ENABLE();
 8002070:	69eb      	ldr	r3, [r5, #28]
 8002072:	4313      	orrs	r3, r2
 8002074:	61eb      	str	r3, [r5, #28]
 8002076:	69eb      	ldr	r3, [r5, #28]
 8002078:	4013      	ands	r3, r2
 800207a:	9303      	str	r3, [sp, #12]
 800207c:	9b03      	ldr	r3, [sp, #12]
      pwrclkchanged = SET;
 800207e:	2301      	movs	r3, #1
 8002080:	9300      	str	r3, [sp, #0]
    if(HAL_IS_BIT_CLR(PWR->CR, PWR_CR_DBP))
 8002082:	2780      	movs	r7, #128	; 0x80
 8002084:	4e41      	ldr	r6, [pc, #260]	; (800218c <HAL_RCC_OscConfig+0x314>)
 8002086:	007f      	lsls	r7, r7, #1
 8002088:	6833      	ldr	r3, [r6, #0]
 800208a:	423b      	tst	r3, r7
 800208c:	d006      	beq.n	800209c <HAL_RCC_OscConfig+0x224>
    __HAL_RCC_LSE_CONFIG(RCC_OscInitStruct->LSEState);
 800208e:	68a3      	ldr	r3, [r4, #8]
 8002090:	2b01      	cmp	r3, #1
 8002092:	d113      	bne.n	80020bc <HAL_RCC_OscConfig+0x244>
 8002094:	6a2a      	ldr	r2, [r5, #32]
 8002096:	4313      	orrs	r3, r2
 8002098:	622b      	str	r3, [r5, #32]
 800209a:	e030      	b.n	80020fe <HAL_RCC_OscConfig+0x286>
      SET_BIT(PWR->CR, PWR_CR_DBP);
 800209c:	6833      	ldr	r3, [r6, #0]
 800209e:	433b      	orrs	r3, r7
 80020a0:	6033      	str	r3, [r6, #0]
      tickstart = HAL_GetTick();
 80020a2:	f7ff fbd3 	bl	800184c <HAL_GetTick>
 80020a6:	9001      	str	r0, [sp, #4]
      while(HAL_IS_BIT_CLR(PWR->CR, PWR_CR_DBP))
 80020a8:	6833      	ldr	r3, [r6, #0]
 80020aa:	423b      	tst	r3, r7
 80020ac:	d1ef      	bne.n	800208e <HAL_RCC_OscConfig+0x216>
        if((HAL_GetTick() - tickstart) > RCC_DBP_TIMEOUT_VALUE)
 80020ae:	f7ff fbcd 	bl	800184c <HAL_GetTick>
 80020b2:	9b01      	ldr	r3, [sp, #4]
 80020b4:	1ac0      	subs	r0, r0, r3
 80020b6:	2864      	cmp	r0, #100	; 0x64
 80020b8:	d9f6      	bls.n	80020a8 <HAL_RCC_OscConfig+0x230>
 80020ba:	e740      	b.n	8001f3e <HAL_RCC_OscConfig+0xc6>
 80020bc:	2201      	movs	r2, #1
    __HAL_RCC_LSE_CONFIG(RCC_OscInitStruct->LSEState);
 80020be:	2b00      	cmp	r3, #0
 80020c0:	d114      	bne.n	80020ec <HAL_RCC_OscConfig+0x274>
 80020c2:	6a2b      	ldr	r3, [r5, #32]
      while(__HAL_RCC_GET_FLAG(RCC_FLAG_LSERDY) != RESET)
 80020c4:	2702      	movs	r7, #2
    __HAL_RCC_LSE_CONFIG(RCC_OscInitStruct->LSEState);
 80020c6:	4393      	bics	r3, r2
 80020c8:	622b      	str	r3, [r5, #32]
 80020ca:	6a2b      	ldr	r3, [r5, #32]
 80020cc:	3203      	adds	r2, #3
 80020ce:	4393      	bics	r3, r2
 80020d0:	622b      	str	r3, [r5, #32]
      tickstart = HAL_GetTick();
 80020d2:	f7ff fbbb 	bl	800184c <HAL_GetTick>
 80020d6:	0006      	movs	r6, r0
      while(__HAL_RCC_GET_FLAG(RCC_FLAG_LSERDY) != RESET)
 80020d8:	6a2b      	ldr	r3, [r5, #32]
 80020da:	423b      	tst	r3, r7
 80020dc:	d025      	beq.n	800212a <HAL_RCC_OscConfig+0x2b2>
        if((HAL_GetTick() - tickstart ) > RCC_LSE_TIMEOUT_VALUE)
 80020de:	f7ff fbb5 	bl	800184c <HAL_GetTick>
 80020e2:	4b2b      	ldr	r3, [pc, #172]	; (8002190 <HAL_RCC_OscConfig+0x318>)
 80020e4:	1b80      	subs	r0, r0, r6
 80020e6:	4298      	cmp	r0, r3
 80020e8:	d9f6      	bls.n	80020d8 <HAL_RCC_OscConfig+0x260>
 80020ea:	e728      	b.n	8001f3e <HAL_RCC_OscConfig+0xc6>
    __HAL_RCC_LSE_CONFIG(RCC_OscInitStruct->LSEState);
 80020ec:	2b05      	cmp	r3, #5
 80020ee:	d10b      	bne.n	8002108 <HAL_RCC_OscConfig+0x290>
 80020f0:	6a29      	ldr	r1, [r5, #32]
 80020f2:	3b01      	subs	r3, #1
 80020f4:	430b      	orrs	r3, r1
 80020f6:	622b      	str	r3, [r5, #32]
 80020f8:	6a2b      	ldr	r3, [r5, #32]
 80020fa:	431a      	orrs	r2, r3
 80020fc:	622a      	str	r2, [r5, #32]
      tickstart = HAL_GetTick();
 80020fe:	f7ff fba5 	bl	800184c <HAL_GetTick>
      while(__HAL_RCC_GET_FLAG(RCC_FLAG_LSERDY) == RESET)
 8002102:	2702      	movs	r7, #2
      tickstart = HAL_GetTick();
 8002104:	0006      	movs	r6, r0
      while(__HAL_RCC_GET_FLAG(RCC_FLAG_LSERDY) == RESET)
 8002106:	e00d      	b.n	8002124 <HAL_RCC_OscConfig+0x2ac>
    __HAL_RCC_LSE_CONFIG(RCC_OscInitStruct->LSEState);
 8002108:	6a2b      	ldr	r3, [r5, #32]
 800210a:	4393      	bics	r3, r2
 800210c:	2204      	movs	r2, #4
 800210e:	622b      	str	r3, [r5, #32]
 8002110:	6a2b      	ldr	r3, [r5, #32]
 8002112:	4393      	bics	r3, r2
 8002114:	e7c0      	b.n	8002098 <HAL_RCC_OscConfig+0x220>
        if((HAL_GetTick() - tickstart ) > RCC_LSE_TIMEOUT_VALUE)
 8002116:	f7ff fb99 	bl	800184c <HAL_GetTick>
 800211a:	4b1d      	ldr	r3, [pc, #116]	; (8002190 <HAL_RCC_OscConfig+0x318>)
 800211c:	1b80      	subs	r0, r0, r6
 800211e:	4298      	cmp	r0, r3
 8002120:	d900      	bls.n	8002124 <HAL_RCC_OscConfig+0x2ac>
 8002122:	e70c      	b.n	8001f3e <HAL_RCC_OscConfig+0xc6>
      while(__HAL_RCC_GET_FLAG(RCC_FLAG_LSERDY) == RESET)
 8002124:	6a2b      	ldr	r3, [r5, #32]
 8002126:	423b      	tst	r3, r7
 8002128:	d0f5      	beq.n	8002116 <HAL_RCC_OscConfig+0x29e>
    if(pwrclkchanged == SET)
 800212a:	9b00      	ldr	r3, [sp, #0]
 800212c:	2b01      	cmp	r3, #1
 800212e:	d000      	beq.n	8002132 <HAL_RCC_OscConfig+0x2ba>
 8002130:	e6b8      	b.n	8001ea4 <HAL_RCC_OscConfig+0x2c>
      __HAL_RCC_PWR_CLK_DISABLE();
 8002132:	69eb      	ldr	r3, [r5, #28]
 8002134:	4a17      	ldr	r2, [pc, #92]	; (8002194 <HAL_RCC_OscConfig+0x31c>)
 8002136:	4013      	ands	r3, r2
 8002138:	61eb      	str	r3, [r5, #28]
 800213a:	e6b3      	b.n	8001ea4 <HAL_RCC_OscConfig+0x2c>
        if((HAL_GetTick() - tickstart) > HSI14_TIMEOUT_VALUE)
 800213c:	f7ff fb86 	bl	800184c <HAL_GetTick>
 8002140:	1bc0      	subs	r0, r0, r7
 8002142:	2802      	cmp	r0, #2
 8002144:	d800      	bhi.n	8002148 <HAL_RCC_OscConfig+0x2d0>
 8002146:	e6c0      	b.n	8001eca <HAL_RCC_OscConfig+0x52>
 8002148:	e6f9      	b.n	8001f3e <HAL_RCC_OscConfig+0xc6>
    else if(RCC_OscInitStruct->HSI14State == RCC_HSI14_ADC_CONTROL)
 800214a:	3205      	adds	r2, #5
 800214c:	d103      	bne.n	8002156 <HAL_RCC_OscConfig+0x2de>
      __HAL_RCC_HSI14ADC_ENABLE();
 800214e:	6b6a      	ldr	r2, [r5, #52]	; 0x34
 8002150:	439a      	bics	r2, r3
 8002152:	636a      	str	r2, [r5, #52]	; 0x34
 8002154:	e6bd      	b.n	8001ed2 <HAL_RCC_OscConfig+0x5a>
      __HAL_RCC_HSI14ADC_DISABLE();
 8002156:	6b6a      	ldr	r2, [r5, #52]	; 0x34
      while(__HAL_RCC_GET_FLAG(RCC_FLAG_HSI14RDY) != RESET)
 8002158:	2602      	movs	r6, #2
      __HAL_RCC_HSI14ADC_DISABLE();
 800215a:	4313      	orrs	r3, r2
      __HAL_RCC_HSI14_DISABLE();
 800215c:	2201      	movs	r2, #1
      __HAL_RCC_HSI14ADC_DISABLE();
 800215e:	636b      	str	r3, [r5, #52]	; 0x34
      __HAL_RCC_HSI14_DISABLE();
 8002160:	6b6b      	ldr	r3, [r5, #52]	; 0x34
 8002162:	4393      	bics	r3, r2
 8002164:	636b      	str	r3, [r5, #52]	; 0x34
      tickstart = HAL_GetTick();
 8002166:	f7ff fb71 	bl	800184c <HAL_GetTick>
 800216a:	0007      	movs	r7, r0
      while(__HAL_RCC_GET_FLAG(RCC_FLAG_HSI14RDY) != RESET)
 800216c:	6b6b      	ldr	r3, [r5, #52]	; 0x34
 800216e:	4233      	tst	r3, r6
 8002170:	d100      	bne.n	8002174 <HAL_RCC_OscConfig+0x2fc>
 8002172:	e6b5      	b.n	8001ee0 <HAL_RCC_OscConfig+0x68>
        if((HAL_GetTick() - tickstart) > HSI14_TIMEOUT_VALUE)
 8002174:	f7ff fb6a 	bl	800184c <HAL_GetTick>
 8002178:	1bc0      	subs	r0, r0, r7
 800217a:	2802      	cmp	r0, #2
 800217c:	d9f6      	bls.n	800216c <HAL_RCC_OscConfig+0x2f4>
 800217e:	e6de      	b.n	8001f3e <HAL_RCC_OscConfig+0xc6>
 8002180:	40021000 	.word	0x40021000
 8002184:	fffeffff 	.word	0xfffeffff
 8002188:	fffbffff 	.word	0xfffbffff
 800218c:	40007000 	.word	0x40007000
 8002190:	00001388 	.word	0x00001388
 8002194:	efffffff 	.word	0xefffffff
    if(__HAL_RCC_GET_SYSCLK_SOURCE() != RCC_SYSCLKSOURCE_STATUS_PLLCLK)
 8002198:	200c      	movs	r0, #12
 800219a:	4a35      	ldr	r2, [pc, #212]	; (8002270 <HAL_RCC_OscConfig+0x3f8>)
 800219c:	6851      	ldr	r1, [r2, #4]
 800219e:	0015      	movs	r5, r2
 80021a0:	4001      	ands	r1, r0
 80021a2:	2908      	cmp	r1, #8
 80021a4:	d047      	beq.n	8002236 <HAL_RCC_OscConfig+0x3be>
 80021a6:	4a33      	ldr	r2, [pc, #204]	; (8002274 <HAL_RCC_OscConfig+0x3fc>)
      if((RCC_OscInitStruct->PLL.PLLState) == RCC_PLL_ON)
 80021a8:	2b02      	cmp	r3, #2
 80021aa:	d132      	bne.n	8002212 <HAL_RCC_OscConfig+0x39a>
        __HAL_RCC_PLL_DISABLE();
 80021ac:	682b      	ldr	r3, [r5, #0]
        while(__HAL_RCC_GET_FLAG(RCC_FLAG_PLLRDY)  != RESET)
 80021ae:	2680      	movs	r6, #128	; 0x80
        __HAL_RCC_PLL_DISABLE();
 80021b0:	4013      	ands	r3, r2
 80021b2:	602b      	str	r3, [r5, #0]
        tickstart = HAL_GetTick();
 80021b4:	f7ff fb4a 	bl	800184c <HAL_GetTick>
 80021b8:	0007      	movs	r7, r0
        while(__HAL_RCC_GET_FLAG(RCC_FLAG_PLLRDY)  != RESET)
 80021ba:	04b6      	lsls	r6, r6, #18
 80021bc:	682b      	ldr	r3, [r5, #0]
 80021be:	4233      	tst	r3, r6
 80021c0:	d121      	bne.n	8002206 <HAL_RCC_OscConfig+0x38e>
        __HAL_RCC_PLL_CONFIG(RCC_OscInitStruct->PLL.PLLSource,
 80021c2:	220f      	movs	r2, #15
 80021c4:	6aeb      	ldr	r3, [r5, #44]	; 0x2c
 80021c6:	4393      	bics	r3, r2
 80021c8:	6ae2      	ldr	r2, [r4, #44]	; 0x2c
 80021ca:	4313      	orrs	r3, r2
 80021cc:	62eb      	str	r3, [r5, #44]	; 0x2c
 80021ce:	6a61      	ldr	r1, [r4, #36]	; 0x24
 80021d0:	6aa3      	ldr	r3, [r4, #40]	; 0x28
 80021d2:	686a      	ldr	r2, [r5, #4]
 80021d4:	430b      	orrs	r3, r1
 80021d6:	4928      	ldr	r1, [pc, #160]	; (8002278 <HAL_RCC_OscConfig+0x400>)
        while(__HAL_RCC_GET_FLAG(RCC_FLAG_PLLRDY)  == RESET)
 80021d8:	2480      	movs	r4, #128	; 0x80
        __HAL_RCC_PLL_CONFIG(RCC_OscInitStruct->PLL.PLLSource,
 80021da:	400a      	ands	r2, r1
 80021dc:	4313      	orrs	r3, r2
 80021de:	606b      	str	r3, [r5, #4]
        __HAL_RCC_PLL_ENABLE();
 80021e0:	2380      	movs	r3, #128	; 0x80
 80021e2:	682a      	ldr	r2, [r5, #0]
 80021e4:	045b      	lsls	r3, r3, #17
 80021e6:	4313      	orrs	r3, r2
 80021e8:	602b      	str	r3, [r5, #0]
        tickstart = HAL_GetTick();
 80021ea:	f7ff fb2f 	bl	800184c <HAL_GetTick>
 80021ee:	0006      	movs	r6, r0
        while(__HAL_RCC_GET_FLAG(RCC_FLAG_PLLRDY)  == RESET)
 80021f0:	04a4      	lsls	r4, r4, #18
 80021f2:	682b      	ldr	r3, [r5, #0]
 80021f4:	4223      	tst	r3, r4
 80021f6:	d000      	beq.n	80021fa <HAL_RCC_OscConfig+0x382>
 80021f8:	e676      	b.n	8001ee8 <HAL_RCC_OscConfig+0x70>
          if((HAL_GetTick() - tickstart ) > PLL_TIMEOUT_VALUE)
 80021fa:	f7ff fb27 	bl	800184c <HAL_GetTick>
 80021fe:	1b80      	subs	r0, r0, r6
 8002200:	2802      	cmp	r0, #2
 8002202:	d9f6      	bls.n	80021f2 <HAL_RCC_OscConfig+0x37a>
 8002204:	e69b      	b.n	8001f3e <HAL_RCC_OscConfig+0xc6>
          if((HAL_GetTick() - tickstart ) > PLL_TIMEOUT_VALUE)
 8002206:	f7ff fb21 	bl	800184c <HAL_GetTick>
 800220a:	1bc0      	subs	r0, r0, r7
 800220c:	2802      	cmp	r0, #2
 800220e:	d9d5      	bls.n	80021bc <HAL_RCC_OscConfig+0x344>
 8002210:	e695      	b.n	8001f3e <HAL_RCC_OscConfig+0xc6>
        __HAL_RCC_PLL_DISABLE();
 8002212:	682b      	ldr	r3, [r5, #0]
        while(__HAL_RCC_GET_FLAG(RCC_FLAG_PLLRDY)  != RESET)
 8002214:	2480      	movs	r4, #128	; 0x80
        __HAL_RCC_PLL_DISABLE();
 8002216:	4013      	ands	r3, r2
 8002218:	602b      	str	r3, [r5, #0]
        tickstart = HAL_GetTick();
 800221a:	f7ff fb17 	bl	800184c <HAL_GetTick>
 800221e:	0006      	movs	r6, r0
        while(__HAL_RCC_GET_FLAG(RCC_FLAG_PLLRDY)  != RESET)
 8002220:	04a4      	lsls	r4, r4, #18
 8002222:	682b      	ldr	r3, [r5, #0]
 8002224:	4223      	tst	r3, r4
 8002226:	d100      	bne.n	800222a <HAL_RCC_OscConfig+0x3b2>
 8002228:	e65e      	b.n	8001ee8 <HAL_RCC_OscConfig+0x70>
          if((HAL_GetTick() - tickstart ) > PLL_TIMEOUT_VALUE)
 800222a:	f7ff fb0f 	bl	800184c <HAL_GetTick>
 800222e:	1b80      	subs	r0, r0, r6
 8002230:	2802      	cmp	r0, #2
 8002232:	d9f6      	bls.n	8002222 <HAL_RCC_OscConfig+0x3aa>
 8002234:	e683      	b.n	8001f3e <HAL_RCC_OscConfig+0xc6>
        return HAL_ERROR;
 8002236:	0018      	movs	r0, r3
      if((RCC_OscInitStruct->PLL.PLLState) == RCC_PLL_OFF)
 8002238:	2b01      	cmp	r3, #1
 800223a:	d100      	bne.n	800223e <HAL_RCC_OscConfig+0x3c6>
 800223c:	e622      	b.n	8001e84 <HAL_RCC_OscConfig+0xc>
        if((READ_BIT(pll_config,  RCC_CFGR_PLLSRC)  != RCC_OscInitStruct->PLL.PLLSource) ||
 800223e:	2180      	movs	r1, #128	; 0x80
        pll_config  = RCC->CFGR;
 8002240:	6853      	ldr	r3, [r2, #4]
        if((READ_BIT(pll_config,  RCC_CFGR_PLLSRC)  != RCC_OscInitStruct->PLL.PLLSource) ||
 8002242:	6a65      	ldr	r5, [r4, #36]	; 0x24
 8002244:	0249      	lsls	r1, r1, #9
        pll_config2 = RCC->CFGR2;
 8002246:	6ad2      	ldr	r2, [r2, #44]	; 0x2c
        if((READ_BIT(pll_config,  RCC_CFGR_PLLSRC)  != RCC_OscInitStruct->PLL.PLLSource) ||
 8002248:	4019      	ands	r1, r3
        return HAL_ERROR;
 800224a:	2001      	movs	r0, #1
        if((READ_BIT(pll_config,  RCC_CFGR_PLLSRC)  != RCC_OscInitStruct->PLL.PLLSource) ||
 800224c:	42a9      	cmp	r1, r5
 800224e:	d000      	beq.n	8002252 <HAL_RCC_OscConfig+0x3da>
 8002250:	e618      	b.n	8001e84 <HAL_RCC_OscConfig+0xc>
           (READ_BIT(pll_config2, RCC_CFGR2_PREDIV) != RCC_OscInitStruct->PLL.PREDIV)    ||
 8002252:	210f      	movs	r1, #15
 8002254:	400a      	ands	r2, r1
        if((READ_BIT(pll_config,  RCC_CFGR_PLLSRC)  != RCC_OscInitStruct->PLL.PLLSource) ||
 8002256:	6ae1      	ldr	r1, [r4, #44]	; 0x2c
 8002258:	428a      	cmp	r2, r1
 800225a:	d000      	beq.n	800225e <HAL_RCC_OscConfig+0x3e6>
 800225c:	e612      	b.n	8001e84 <HAL_RCC_OscConfig+0xc>
           (READ_BIT(pll_config,  RCC_CFGR_PLLMUL)  != RCC_OscInitStruct->PLL.PLLMUL))
 800225e:	20f0      	movs	r0, #240	; 0xf0
 8002260:	0380      	lsls	r0, r0, #14
 8002262:	4003      	ands	r3, r0
           (READ_BIT(pll_config2, RCC_CFGR2_PREDIV) != RCC_OscInitStruct->PLL.PREDIV)    ||
 8002264:	6aa0      	ldr	r0, [r4, #40]	; 0x28
 8002266:	1a1b      	subs	r3, r3, r0
 8002268:	1e58      	subs	r0, r3, #1
 800226a:	4183      	sbcs	r3, r0
    return HAL_ERROR;
 800226c:	b2d8      	uxtb	r0, r3
 800226e:	e609      	b.n	8001e84 <HAL_RCC_OscConfig+0xc>
 8002270:	40021000 	.word	0x40021000
 8002274:	feffffff 	.word	0xfeffffff
 8002278:	ffc2ffff 	.word	0xffc2ffff

0800227c <HAL_RCC_GetSysClockFreq>:
  *         right SYSCLK value. Otherwise, any configuration based on this function will be incorrect.
  *         
  * @retval SYSCLK frequency
  */
uint32_t HAL_RCC_GetSysClockFreq(void)
{
 800227c:	b570      	push	{r4, r5, r6, lr}
  const uint8_t aPLLMULFactorTable[16] = { 2U,  3U,  4U,  5U,  6U,  7U,  8U,  9U,
 800227e:	4c14      	ldr	r4, [pc, #80]	; (80022d0 <HAL_RCC_GetSysClockFreq+0x54>)
{
 8002280:	b088      	sub	sp, #32
  const uint8_t aPLLMULFactorTable[16] = { 2U,  3U,  4U,  5U,  6U,  7U,  8U,  9U,
 8002282:	2210      	movs	r2, #16
 8002284:	0021      	movs	r1, r4
 8002286:	4668      	mov	r0, sp
 8002288:	f000 f8ee 	bl	8002468 <memcpy>
                                         10U, 11U, 12U, 13U, 14U, 15U, 16U, 16U};
  const uint8_t aPredivFactorTable[16] = { 1U, 2U,  3U,  4U,  5U,  6U,  7U,  8U,
 800228c:	0021      	movs	r1, r4
 800228e:	ad04      	add	r5, sp, #16
 8002290:	2210      	movs	r2, #16
 8002292:	3110      	adds	r1, #16
 8002294:	0028      	movs	r0, r5
 8002296:	f000 f8e7 	bl	8002468 <memcpy>
  uint32_t sysclockfreq = 0U;
  
  tmpreg = RCC->CFGR;
  
  /* Get SYSCLK source -------------------------------------------------------*/
  switch (tmpreg & RCC_CFGR_SWS)
 800229a:	220c      	movs	r2, #12
  tmpreg = RCC->CFGR;
 800229c:	4e0d      	ldr	r6, [pc, #52]	; (80022d4 <HAL_RCC_GetSysClockFreq+0x58>)
 800229e:	6873      	ldr	r3, [r6, #4]
  switch (tmpreg & RCC_CFGR_SWS)
 80022a0:	401a      	ands	r2, r3
 80022a2:	2a08      	cmp	r2, #8
 80022a4:	d111      	bne.n	80022ca <HAL_RCC_GetSysClockFreq+0x4e>
      sysclockfreq = HSE_VALUE;
      break;
    }
    case RCC_SYSCLKSOURCE_STATUS_PLLCLK:  /* PLL used as system clock */
    {
      pllmul = aPLLMULFactorTable[(uint32_t)(tmpreg & RCC_CFGR_PLLMUL) >> RCC_CFGR_PLLMUL_BITNUMBER];
 80022a6:	200f      	movs	r0, #15
 80022a8:	466a      	mov	r2, sp
 80022aa:	0c99      	lsrs	r1, r3, #18
 80022ac:	4001      	ands	r1, r0
 80022ae:	5c54      	ldrb	r4, [r2, r1]
      prediv = aPredivFactorTable[(uint32_t)(RCC->CFGR2 & RCC_CFGR2_PREDIV) >> RCC_CFGR2_PREDIV_BITNUMBER];
 80022b0:	6af2      	ldr	r2, [r6, #44]	; 0x2c
 80022b2:	4002      	ands	r2, r0
 80022b4:	5ca9      	ldrb	r1, [r5, r2]
      if ((tmpreg & RCC_CFGR_PLLSRC) == RCC_PLLSOURCE_HSE)
 80022b6:	03db      	lsls	r3, r3, #15
 80022b8:	d505      	bpl.n	80022c6 <HAL_RCC_GetSysClockFreq+0x4a>
      {
        /* HSE used as PLL clock source : PLLCLK = HSE/PREDIV * PLLMUL */
        pllclk = (uint32_t)((uint64_t) HSE_VALUE / (uint64_t) (prediv)) * ((uint64_t) pllmul);
 80022ba:	4807      	ldr	r0, [pc, #28]	; (80022d8 <HAL_RCC_GetSysClockFreq+0x5c>)
 80022bc:	f7fd ff2e 	bl	800011c <__udivsi3>
#if  (defined(STM32F042x6) || defined(STM32F048xx) || defined(STM32F070x6) || defined(STM32F071xB) || defined(STM32F072xB) || defined(STM32F078xx) || defined(STM32F070xB) || defined(STM32F091xC) || defined(STM32F098xx) || defined(STM32F030xC))
        /* HSI used as PLL clock source : PLLCLK = HSI/PREDIV * PLLMUL */
        pllclk = (uint32_t)((uint64_t) HSI_VALUE / (uint64_t) (prediv)) * ((uint64_t) pllmul);
#else
        /* HSI used as PLL clock source : PLLCLK = HSI/2 * PLLMUL */
        pllclk = (uint32_t)((uint64_t) (HSI_VALUE >> 1U) * ((uint64_t) pllmul));
 80022c0:	4360      	muls	r0, r4
      sysclockfreq = HSI_VALUE;
      break;
    }
  }
  return sysclockfreq;
}
 80022c2:	b008      	add	sp, #32
 80022c4:	bd70      	pop	{r4, r5, r6, pc}
        pllclk = (uint32_t)((uint64_t) (HSI_VALUE >> 1U) * ((uint64_t) pllmul));
 80022c6:	4805      	ldr	r0, [pc, #20]	; (80022dc <HAL_RCC_GetSysClockFreq+0x60>)
 80022c8:	e7fa      	b.n	80022c0 <HAL_RCC_GetSysClockFreq+0x44>
      sysclockfreq = HSE_VALUE;
 80022ca:	4803      	ldr	r0, [pc, #12]	; (80022d8 <HAL_RCC_GetSysClockFreq+0x5c>)
  return sysclockfreq;
 80022cc:	e7f9      	b.n	80022c2 <HAL_RCC_GetSysClockFreq+0x46>
 80022ce:	46c0      	nop			; (mov r8, r8)
 80022d0:	08002508 	.word	0x08002508
 80022d4:	40021000 	.word	0x40021000
 80022d8:	007a1200 	.word	0x007a1200
 80022dc:	003d0900 	.word	0x003d0900

080022e0 <HAL_RCC_ClockConfig>:
{
 80022e0:	b5f7      	push	{r0, r1, r2, r4, r5, r6, r7, lr}
 80022e2:	0005      	movs	r5, r0
 80022e4:	000f      	movs	r7, r1
  if(RCC_ClkInitStruct == NULL)
 80022e6:	2800      	cmp	r0, #0
 80022e8:	d101      	bne.n	80022ee <HAL_RCC_ClockConfig+0xe>
    return HAL_ERROR;
 80022ea:	2001      	movs	r0, #1
}
 80022ec:	bdfe      	pop	{r1, r2, r3, r4, r5, r6, r7, pc}
  if(FLatency > __HAL_FLASH_GET_LATENCY())
 80022ee:	2201      	movs	r2, #1
 80022f0:	4c37      	ldr	r4, [pc, #220]	; (80023d0 <HAL_RCC_ClockConfig+0xf0>)
 80022f2:	6823      	ldr	r3, [r4, #0]
 80022f4:	4013      	ands	r3, r2
 80022f6:	428b      	cmp	r3, r1
 80022f8:	d31c      	bcc.n	8002334 <HAL_RCC_ClockConfig+0x54>
  if(((RCC_ClkInitStruct->ClockType) & RCC_CLOCKTYPE_HCLK) == RCC_CLOCKTYPE_HCLK)
 80022fa:	6829      	ldr	r1, [r5, #0]
 80022fc:	078b      	lsls	r3, r1, #30
 80022fe:	d422      	bmi.n	8002346 <HAL_RCC_ClockConfig+0x66>
  if(((RCC_ClkInitStruct->ClockType) & RCC_CLOCKTYPE_SYSCLK) == RCC_CLOCKTYPE_SYSCLK)
 8002300:	07cb      	lsls	r3, r1, #31
 8002302:	d42f      	bmi.n	8002364 <HAL_RCC_ClockConfig+0x84>
  if(FLatency < __HAL_FLASH_GET_LATENCY())
 8002304:	2301      	movs	r3, #1
 8002306:	6822      	ldr	r2, [r4, #0]
 8002308:	401a      	ands	r2, r3
 800230a:	42ba      	cmp	r2, r7
 800230c:	d851      	bhi.n	80023b2 <HAL_RCC_ClockConfig+0xd2>
  if(((RCC_ClkInitStruct->ClockType) & RCC_CLOCKTYPE_PCLK1) == RCC_CLOCKTYPE_PCLK1)
 800230e:	682b      	ldr	r3, [r5, #0]
 8002310:	4c30      	ldr	r4, [pc, #192]	; (80023d4 <HAL_RCC_ClockConfig+0xf4>)
 8002312:	075b      	lsls	r3, r3, #29
 8002314:	d454      	bmi.n	80023c0 <HAL_RCC_ClockConfig+0xe0>
  SystemCoreClock = HAL_RCC_GetSysClockFreq() >> AHBPrescTable[(RCC->CFGR & RCC_CFGR_HPRE)>> RCC_CFGR_HPRE_BITNUMBER];
 8002316:	f7ff ffb1 	bl	800227c <HAL_RCC_GetSysClockFreq>
 800231a:	6863      	ldr	r3, [r4, #4]
 800231c:	4a2e      	ldr	r2, [pc, #184]	; (80023d8 <HAL_RCC_ClockConfig+0xf8>)
 800231e:	061b      	lsls	r3, r3, #24
 8002320:	0f1b      	lsrs	r3, r3, #28
 8002322:	5cd3      	ldrb	r3, [r2, r3]
 8002324:	40d8      	lsrs	r0, r3
 8002326:	4b2d      	ldr	r3, [pc, #180]	; (80023dc <HAL_RCC_ClockConfig+0xfc>)
 8002328:	6018      	str	r0, [r3, #0]
  HAL_InitTick (TICK_INT_PRIORITY);
 800232a:	2000      	movs	r0, #0
 800232c:	f7ff fa4e 	bl	80017cc <HAL_InitTick>
  return HAL_OK;
 8002330:	2000      	movs	r0, #0
 8002332:	e7db      	b.n	80022ec <HAL_RCC_ClockConfig+0xc>
    __HAL_FLASH_SET_LATENCY(FLatency);
 8002334:	6823      	ldr	r3, [r4, #0]
 8002336:	4393      	bics	r3, r2
 8002338:	430b      	orrs	r3, r1
 800233a:	6023      	str	r3, [r4, #0]
    if(__HAL_FLASH_GET_LATENCY() != FLatency)
 800233c:	6823      	ldr	r3, [r4, #0]
 800233e:	4013      	ands	r3, r2
 8002340:	428b      	cmp	r3, r1
 8002342:	d1d2      	bne.n	80022ea <HAL_RCC_ClockConfig+0xa>
 8002344:	e7d9      	b.n	80022fa <HAL_RCC_ClockConfig+0x1a>
 8002346:	4a23      	ldr	r2, [pc, #140]	; (80023d4 <HAL_RCC_ClockConfig+0xf4>)
    if(((RCC_ClkInitStruct->ClockType) & RCC_CLOCKTYPE_PCLK1) == RCC_CLOCKTYPE_PCLK1)
 8002348:	074b      	lsls	r3, r1, #29
 800234a:	d504      	bpl.n	8002356 <HAL_RCC_ClockConfig+0x76>
      MODIFY_REG(RCC->CFGR, RCC_CFGR_PPRE, RCC_HCLK_DIV16);
 800234c:	23e0      	movs	r3, #224	; 0xe0
 800234e:	6850      	ldr	r0, [r2, #4]
 8002350:	00db      	lsls	r3, r3, #3
 8002352:	4303      	orrs	r3, r0
 8002354:	6053      	str	r3, [r2, #4]
    MODIFY_REG(RCC->CFGR, RCC_CFGR_HPRE, RCC_ClkInitStruct->AHBCLKDivider);
 8002356:	20f0      	movs	r0, #240	; 0xf0
 8002358:	6853      	ldr	r3, [r2, #4]
 800235a:	4383      	bics	r3, r0
 800235c:	68a8      	ldr	r0, [r5, #8]
 800235e:	4303      	orrs	r3, r0
 8002360:	6053      	str	r3, [r2, #4]
 8002362:	e7cd      	b.n	8002300 <HAL_RCC_ClockConfig+0x20>
 8002364:	4e1b      	ldr	r6, [pc, #108]	; (80023d4 <HAL_RCC_ClockConfig+0xf4>)
    if(RCC_ClkInitStruct->SYSCLKSource == RCC_SYSCLKSOURCE_HSE)
 8002366:	686a      	ldr	r2, [r5, #4]
      if(__HAL_RCC_GET_FLAG(RCC_FLAG_HSERDY) == RESET)
 8002368:	6833      	ldr	r3, [r6, #0]
    if(RCC_ClkInitStruct->SYSCLKSource == RCC_SYSCLKSOURCE_HSE)
 800236a:	2a01      	cmp	r2, #1
 800236c:	d119      	bne.n	80023a2 <HAL_RCC_ClockConfig+0xc2>
      if(__HAL_RCC_GET_FLAG(RCC_FLAG_HSERDY) == RESET)
 800236e:	039b      	lsls	r3, r3, #14
 8002370:	d5bb      	bpl.n	80022ea <HAL_RCC_ClockConfig+0xa>
    __HAL_RCC_SYSCLK_CONFIG(RCC_ClkInitStruct->SYSCLKSource);
 8002372:	2103      	movs	r1, #3
 8002374:	6873      	ldr	r3, [r6, #4]
 8002376:	438b      	bics	r3, r1
 8002378:	4313      	orrs	r3, r2
 800237a:	6073      	str	r3, [r6, #4]
    tickstart = HAL_GetTick();
 800237c:	f7ff fa66 	bl	800184c <HAL_GetTick>
 8002380:	9001      	str	r0, [sp, #4]
    while (__HAL_RCC_GET_SYSCLK_SOURCE() != (RCC_ClkInitStruct->SYSCLKSource << RCC_CFGR_SWS_Pos))
 8002382:	230c      	movs	r3, #12
 8002384:	6872      	ldr	r2, [r6, #4]
 8002386:	401a      	ands	r2, r3
 8002388:	686b      	ldr	r3, [r5, #4]
 800238a:	009b      	lsls	r3, r3, #2
 800238c:	429a      	cmp	r2, r3
 800238e:	d0b9      	beq.n	8002304 <HAL_RCC_ClockConfig+0x24>
      if((HAL_GetTick() - tickstart ) > CLOCKSWITCH_TIMEOUT_VALUE)
 8002390:	f7ff fa5c 	bl	800184c <HAL_GetTick>
 8002394:	9b01      	ldr	r3, [sp, #4]
 8002396:	1ac0      	subs	r0, r0, r3
 8002398:	4b11      	ldr	r3, [pc, #68]	; (80023e0 <HAL_RCC_ClockConfig+0x100>)
 800239a:	4298      	cmp	r0, r3
 800239c:	d9f1      	bls.n	8002382 <HAL_RCC_ClockConfig+0xa2>
        return HAL_TIMEOUT;
 800239e:	2003      	movs	r0, #3
 80023a0:	e7a4      	b.n	80022ec <HAL_RCC_ClockConfig+0xc>
    else if(RCC_ClkInitStruct->SYSCLKSource == RCC_SYSCLKSOURCE_PLLCLK)
 80023a2:	2a02      	cmp	r2, #2
 80023a4:	d102      	bne.n	80023ac <HAL_RCC_ClockConfig+0xcc>
      if(__HAL_RCC_GET_FLAG(RCC_FLAG_PLLRDY) == RESET)
 80023a6:	019b      	lsls	r3, r3, #6
 80023a8:	d4e3      	bmi.n	8002372 <HAL_RCC_ClockConfig+0x92>
 80023aa:	e79e      	b.n	80022ea <HAL_RCC_ClockConfig+0xa>
      if(__HAL_RCC_GET_FLAG(RCC_FLAG_HSIRDY) == RESET)
 80023ac:	079b      	lsls	r3, r3, #30
 80023ae:	d4e0      	bmi.n	8002372 <HAL_RCC_ClockConfig+0x92>
 80023b0:	e79b      	b.n	80022ea <HAL_RCC_ClockConfig+0xa>
    __HAL_FLASH_SET_LATENCY(FLatency);
 80023b2:	6822      	ldr	r2, [r4, #0]
 80023b4:	439a      	bics	r2, r3
 80023b6:	6022      	str	r2, [r4, #0]
    if(__HAL_FLASH_GET_LATENCY() != FLatency)
 80023b8:	6822      	ldr	r2, [r4, #0]
 80023ba:	421a      	tst	r2, r3
 80023bc:	d0a7      	beq.n	800230e <HAL_RCC_ClockConfig+0x2e>
 80023be:	e794      	b.n	80022ea <HAL_RCC_ClockConfig+0xa>
    MODIFY_REG(RCC->CFGR, RCC_CFGR_PPRE, RCC_ClkInitStruct->APB1CLKDivider);
 80023c0:	6863      	ldr	r3, [r4, #4]
 80023c2:	4a08      	ldr	r2, [pc, #32]	; (80023e4 <HAL_RCC_ClockConfig+0x104>)
 80023c4:	4013      	ands	r3, r2
 80023c6:	68ea      	ldr	r2, [r5, #12]
 80023c8:	4313      	orrs	r3, r2
 80023ca:	6063      	str	r3, [r4, #4]
 80023cc:	e7a3      	b.n	8002316 <HAL_RCC_ClockConfig+0x36>
 80023ce:	46c0      	nop			; (mov r8, r8)
 80023d0:	40022000 	.word	0x40022000
 80023d4:	40021000 	.word	0x40021000
 80023d8:	08003abe 	.word	0x08003abe
 80023dc:	20000024 	.word	0x20000024
 80023e0:	00001388 	.word	0x00001388
 80023e4:	fffff8ff 	.word	0xfffff8ff

080023e8 <__libc_init_array>:
 80023e8:	b570      	push	{r4, r5, r6, lr}
 80023ea:	2600      	movs	r6, #0
 80023ec:	4d0c      	ldr	r5, [pc, #48]	; (8002420 <__libc_init_array+0x38>)
 80023ee:	4c0d      	ldr	r4, [pc, #52]	; (8002424 <__libc_init_array+0x3c>)
 80023f0:	1b64      	subs	r4, r4, r5
 80023f2:	10a4      	asrs	r4, r4, #2
 80023f4:	42a6      	cmp	r6, r4
 80023f6:	d109      	bne.n	800240c <__libc_init_array+0x24>
 80023f8:	2600      	movs	r6, #0
 80023fa:	f000 f879 	bl	80024f0 <_init>
 80023fe:	4d0a      	ldr	r5, [pc, #40]	; (8002428 <__libc_init_array+0x40>)
 8002400:	4c0a      	ldr	r4, [pc, #40]	; (800242c <__libc_init_array+0x44>)
 8002402:	1b64      	subs	r4, r4, r5
 8002404:	10a4      	asrs	r4, r4, #2
 8002406:	42a6      	cmp	r6, r4
 8002408:	d105      	bne.n	8002416 <__libc_init_array+0x2e>
 800240a:	bd70      	pop	{r4, r5, r6, pc}
 800240c:	00b3      	lsls	r3, r6, #2
 800240e:	58eb      	ldr	r3, [r5, r3]
 8002410:	4798      	blx	r3
 8002412:	3601      	adds	r6, #1
 8002414:	e7ee      	b.n	80023f4 <__libc_init_array+0xc>
 8002416:	00b3      	lsls	r3, r6, #2
 8002418:	58eb      	ldr	r3, [r5, r3]
 800241a:	4798      	blx	r3
 800241c:	3601      	adds	r6, #1
 800241e:	e7f2      	b.n	8002406 <__libc_init_array+0x1e>
 8002420:	08003af4 	.word	0x08003af4
 8002424:	08003af4 	.word	0x08003af4
 8002428:	08003af4 	.word	0x08003af4
 800242c:	08003af8 	.word	0x08003af8

08002430 <__itoa>:
 8002430:	1e93      	subs	r3, r2, #2
 8002432:	b510      	push	{r4, lr}
 8002434:	000c      	movs	r4, r1
 8002436:	2b22      	cmp	r3, #34	; 0x22
 8002438:	d904      	bls.n	8002444 <__itoa+0x14>
 800243a:	2300      	movs	r3, #0
 800243c:	001c      	movs	r4, r3
 800243e:	700b      	strb	r3, [r1, #0]
 8002440:	0020      	movs	r0, r4
 8002442:	bd10      	pop	{r4, pc}
 8002444:	2a0a      	cmp	r2, #10
 8002446:	d109      	bne.n	800245c <__itoa+0x2c>
 8002448:	2800      	cmp	r0, #0
 800244a:	da07      	bge.n	800245c <__itoa+0x2c>
 800244c:	232d      	movs	r3, #45	; 0x2d
 800244e:	700b      	strb	r3, [r1, #0]
 8002450:	2101      	movs	r1, #1
 8002452:	4240      	negs	r0, r0
 8002454:	1861      	adds	r1, r4, r1
 8002456:	f000 f819 	bl	800248c <__utoa>
 800245a:	e7f1      	b.n	8002440 <__itoa+0x10>
 800245c:	2100      	movs	r1, #0
 800245e:	e7f9      	b.n	8002454 <__itoa+0x24>

08002460 <itoa>:
 8002460:	b510      	push	{r4, lr}
 8002462:	f7ff ffe5 	bl	8002430 <__itoa>
 8002466:	bd10      	pop	{r4, pc}

08002468 <memcpy>:
 8002468:	2300      	movs	r3, #0
 800246a:	b510      	push	{r4, lr}
 800246c:	429a      	cmp	r2, r3
 800246e:	d100      	bne.n	8002472 <memcpy+0xa>
 8002470:	bd10      	pop	{r4, pc}
 8002472:	5ccc      	ldrb	r4, [r1, r3]
 8002474:	54c4      	strb	r4, [r0, r3]
 8002476:	3301      	adds	r3, #1
 8002478:	e7f8      	b.n	800246c <memcpy+0x4>

0800247a <memset>:
 800247a:	0003      	movs	r3, r0
 800247c:	1812      	adds	r2, r2, r0
 800247e:	4293      	cmp	r3, r2
 8002480:	d100      	bne.n	8002484 <memset+0xa>
 8002482:	4770      	bx	lr
 8002484:	7019      	strb	r1, [r3, #0]
 8002486:	3301      	adds	r3, #1
 8002488:	e7f9      	b.n	800247e <memset+0x4>
	...

0800248c <__utoa>:
 800248c:	b5f0      	push	{r4, r5, r6, r7, lr}
 800248e:	0017      	movs	r7, r2
 8002490:	b08d      	sub	sp, #52	; 0x34
 8002492:	2225      	movs	r2, #37	; 0x25
 8002494:	0006      	movs	r6, r0
 8002496:	000d      	movs	r5, r1
 8002498:	a802      	add	r0, sp, #8
 800249a:	4914      	ldr	r1, [pc, #80]	; (80024ec <__utoa+0x60>)
 800249c:	f7ff ffe4 	bl	8002468 <memcpy>
 80024a0:	aa02      	add	r2, sp, #8
 80024a2:	1ebb      	subs	r3, r7, #2
 80024a4:	2400      	movs	r4, #0
 80024a6:	9201      	str	r2, [sp, #4]
 80024a8:	2b22      	cmp	r3, #34	; 0x22
 80024aa:	d905      	bls.n	80024b8 <__utoa+0x2c>
 80024ac:	702c      	strb	r4, [r5, #0]
 80024ae:	0025      	movs	r5, r4
 80024b0:	0028      	movs	r0, r5
 80024b2:	b00d      	add	sp, #52	; 0x34
 80024b4:	bdf0      	pop	{r4, r5, r6, r7, pc}
 80024b6:	0014      	movs	r4, r2
 80024b8:	0030      	movs	r0, r6
 80024ba:	0039      	movs	r1, r7
 80024bc:	f7fd feb4 	bl	8000228 <__aeabi_uidivmod>
 80024c0:	4684      	mov	ip, r0
 80024c2:	9801      	ldr	r0, [sp, #4]
 80024c4:	1c62      	adds	r2, r4, #1
 80024c6:	18ab      	adds	r3, r5, r2
 80024c8:	5c41      	ldrb	r1, [r0, r1]
 80024ca:	1e5e      	subs	r6, r3, #1
 80024cc:	7031      	strb	r1, [r6, #0]
 80024ce:	4666      	mov	r6, ip
 80024d0:	2e00      	cmp	r6, #0
 80024d2:	d1f0      	bne.n	80024b6 <__utoa+0x2a>
 80024d4:	701e      	strb	r6, [r3, #0]
 80024d6:	002b      	movs	r3, r5
 80024d8:	1b5a      	subs	r2, r3, r5
 80024da:	4294      	cmp	r4, r2
 80024dc:	dde8      	ble.n	80024b0 <__utoa+0x24>
 80024de:	781a      	ldrb	r2, [r3, #0]
 80024e0:	5d29      	ldrb	r1, [r5, r4]
 80024e2:	7019      	strb	r1, [r3, #0]
 80024e4:	552a      	strb	r2, [r5, r4]
 80024e6:	3301      	adds	r3, #1
 80024e8:	3c01      	subs	r4, #1
 80024ea:	e7f5      	b.n	80024d8 <__utoa+0x4c>
 80024ec:	08003ace 	.word	0x08003ace

080024f0 <_init>:
 80024f0:	b5f8      	push	{r3, r4, r5, r6, r7, lr}
 80024f2:	46c0      	nop			; (mov r8, r8)
 80024f4:	bcf8      	pop	{r3, r4, r5, r6, r7}
 80024f6:	bc08      	pop	{r3}
 80024f8:	469e      	mov	lr, r3
 80024fa:	4770      	bx	lr

080024fc <_fini>:
 80024fc:	b5f8      	push	{r3, r4, r5, r6, r7, lr}
 80024fe:	46c0      	nop			; (mov r8, r8)
 8002500:	bcf8      	pop	{r3, r4, r5, r6, r7}
 8002502:	bc08      	pop	{r3}
 8002504:	469e      	mov	lr, r3
 8002506:	4770      	bx	lr
